ARM GAS  C:\Users\sr1\AppData\Local\Temp\ccT3oaUq.s 			page 1


   1              		.cpu cortex-m4
   2              		.arch armv7e-m
   3              		.fpu fpv4-sp-d16
   4              		.eabi_attribute 27, 1
   5              		.eabi_attribute 28, 1
   6              		.eabi_attribute 20, 1
   7              		.eabi_attribute 21, 1
   8              		.eabi_attribute 23, 3
   9              		.eabi_attribute 24, 1
  10              		.eabi_attribute 25, 1
  11              		.eabi_attribute 26, 1
  12              		.eabi_attribute 30, 1
  13              		.eabi_attribute 34, 1
  14              		.eabi_attribute 18, 4
  15              		.file	"adc.c"
  16              		.text
  17              	.Ltext0:
  18              		.cfi_sections	.debug_frame
  19              		.file 1 "Core/Src/adc.c"
  20              		.section	.text.MX_ADC2_Init,"ax",%progbits
  21              		.align	1
  22              		.global	MX_ADC2_Init
  23              		.syntax unified
  24              		.thumb
  25              		.thumb_func
  27              	MX_ADC2_Init:
  28              	.LFB329:
   1:Core/Src/adc.c **** /* USER CODE BEGIN Header */
   2:Core/Src/adc.c **** /**
   3:Core/Src/adc.c ****   ******************************************************************************
   4:Core/Src/adc.c ****   * @file    adc.c
   5:Core/Src/adc.c ****   * @brief   This file provides code for the configuration
   6:Core/Src/adc.c ****   *          of the ADC instances.
   7:Core/Src/adc.c ****   ******************************************************************************
   8:Core/Src/adc.c ****   * @attention
   9:Core/Src/adc.c ****   *
  10:Core/Src/adc.c ****   * Copyright (c) 2025 STMicroelectronics.
  11:Core/Src/adc.c ****   * All rights reserved.
  12:Core/Src/adc.c ****   *
  13:Core/Src/adc.c ****   * This software is licensed under terms that can be found in the LICENSE file
  14:Core/Src/adc.c ****   * in the root directory of this software component.
  15:Core/Src/adc.c ****   * If no LICENSE file comes with this software, it is provided AS-IS.
  16:Core/Src/adc.c ****   *
  17:Core/Src/adc.c ****   ******************************************************************************
  18:Core/Src/adc.c ****   */
  19:Core/Src/adc.c **** /* USER CODE END Header */
  20:Core/Src/adc.c **** /* Includes ------------------------------------------------------------------*/
  21:Core/Src/adc.c **** #include "adc.h"
  22:Core/Src/adc.c **** 
  23:Core/Src/adc.c **** /* USER CODE BEGIN 0 */
  24:Core/Src/adc.c **** 
  25:Core/Src/adc.c **** /* USER CODE END 0 */
  26:Core/Src/adc.c **** 
  27:Core/Src/adc.c **** ADC_HandleTypeDef hadc2;
  28:Core/Src/adc.c **** 
  29:Core/Src/adc.c **** /* ADC2 init function */
  30:Core/Src/adc.c **** void MX_ADC2_Init(void)
ARM GAS  C:\Users\sr1\AppData\Local\Temp\ccT3oaUq.s 			page 2


  31:Core/Src/adc.c **** {
  29              		.loc 1 31 1 view -0
  30              		.cfi_startproc
  31              		@ args = 0, pretend = 0, frame = 32
  32              		@ frame_needed = 0, uses_anonymous_args = 0
  33 0000 00B5     		push	{lr}
  34              	.LCFI0:
  35              		.cfi_def_cfa_offset 4
  36              		.cfi_offset 14, -4
  37 0002 89B0     		sub	sp, sp, #36
  38              	.LCFI1:
  39              		.cfi_def_cfa_offset 40
  32:Core/Src/adc.c **** 
  33:Core/Src/adc.c ****   /* USER CODE BEGIN ADC2_Init 0 */
  34:Core/Src/adc.c **** 
  35:Core/Src/adc.c ****   /* USER CODE END ADC2_Init 0 */
  36:Core/Src/adc.c **** 
  37:Core/Src/adc.c ****   ADC_ChannelConfTypeDef sConfig = {0};
  40              		.loc 1 37 3 view .LVU1
  41              		.loc 1 37 26 is_stmt 0 view .LVU2
  42 0004 2022     		movs	r2, #32
  43 0006 0021     		movs	r1, #0
  44 0008 6846     		mov	r0, sp
  45 000a FFF7FEFF 		bl	memset
  46              	.LVL0:
  38:Core/Src/adc.c **** 
  39:Core/Src/adc.c ****   /* USER CODE BEGIN ADC2_Init 1 */
  40:Core/Src/adc.c **** 
  41:Core/Src/adc.c ****   /* USER CODE END ADC2_Init 1 */
  42:Core/Src/adc.c **** 
  43:Core/Src/adc.c ****   /** Common config
  44:Core/Src/adc.c ****   */
  45:Core/Src/adc.c ****   hadc2.Instance = ADC2;
  47              		.loc 1 45 3 is_stmt 1 view .LVU3
  48              		.loc 1 45 18 is_stmt 0 view .LVU4
  49 000e 1B48     		ldr	r0, .L7
  50 0010 1B4B     		ldr	r3, .L7+4
  51 0012 0360     		str	r3, [r0]
  46:Core/Src/adc.c ****   hadc2.Init.ClockPrescaler = ADC_CLOCK_SYNC_PCLK_DIV4;
  52              		.loc 1 46 3 is_stmt 1 view .LVU5
  53              		.loc 1 46 29 is_stmt 0 view .LVU6
  54 0014 4FF44033 		mov	r3, #196608
  55 0018 4360     		str	r3, [r0, #4]
  47:Core/Src/adc.c ****   hadc2.Init.Resolution = ADC_RESOLUTION_12B;
  56              		.loc 1 47 3 is_stmt 1 view .LVU7
  57              		.loc 1 47 25 is_stmt 0 view .LVU8
  58 001a 0023     		movs	r3, #0
  59 001c 8360     		str	r3, [r0, #8]
  48:Core/Src/adc.c ****   hadc2.Init.DataAlign = ADC_DATAALIGN_RIGHT;
  60              		.loc 1 48 3 is_stmt 1 view .LVU9
  61              		.loc 1 48 24 is_stmt 0 view .LVU10
  62 001e C360     		str	r3, [r0, #12]
  49:Core/Src/adc.c ****   hadc2.Init.GainCompensation = 0;
  63              		.loc 1 49 3 is_stmt 1 view .LVU11
  64              		.loc 1 49 31 is_stmt 0 view .LVU12
  65 0020 0361     		str	r3, [r0, #16]
  50:Core/Src/adc.c ****   hadc2.Init.ScanConvMode = ADC_SCAN_DISABLE;
ARM GAS  C:\Users\sr1\AppData\Local\Temp\ccT3oaUq.s 			page 3


  66              		.loc 1 50 3 is_stmt 1 view .LVU13
  67              		.loc 1 50 27 is_stmt 0 view .LVU14
  68 0022 4361     		str	r3, [r0, #20]
  51:Core/Src/adc.c ****   hadc2.Init.EOCSelection = ADC_EOC_SINGLE_CONV;
  69              		.loc 1 51 3 is_stmt 1 view .LVU15
  70              		.loc 1 51 27 is_stmt 0 view .LVU16
  71 0024 0422     		movs	r2, #4
  72 0026 8261     		str	r2, [r0, #24]
  52:Core/Src/adc.c ****   hadc2.Init.LowPowerAutoWait = DISABLE;
  73              		.loc 1 52 3 is_stmt 1 view .LVU17
  74              		.loc 1 52 31 is_stmt 0 view .LVU18
  75 0028 0377     		strb	r3, [r0, #28]
  53:Core/Src/adc.c ****   hadc2.Init.ContinuousConvMode = DISABLE;
  76              		.loc 1 53 3 is_stmt 1 view .LVU19
  77              		.loc 1 53 33 is_stmt 0 view .LVU20
  78 002a 4377     		strb	r3, [r0, #29]
  54:Core/Src/adc.c ****   hadc2.Init.NbrOfConversion = 1;
  79              		.loc 1 54 3 is_stmt 1 view .LVU21
  80              		.loc 1 54 30 is_stmt 0 view .LVU22
  81 002c 0122     		movs	r2, #1
  82 002e 0262     		str	r2, [r0, #32]
  55:Core/Src/adc.c ****   hadc2.Init.DiscontinuousConvMode = DISABLE;
  83              		.loc 1 55 3 is_stmt 1 view .LVU23
  84              		.loc 1 55 36 is_stmt 0 view .LVU24
  85 0030 80F82430 		strb	r3, [r0, #36]
  56:Core/Src/adc.c ****   hadc2.Init.ExternalTrigConv = ADC_SOFTWARE_START;
  86              		.loc 1 56 3 is_stmt 1 view .LVU25
  87              		.loc 1 56 31 is_stmt 0 view .LVU26
  88 0034 C362     		str	r3, [r0, #44]
  57:Core/Src/adc.c ****   hadc2.Init.ExternalTrigConvEdge = ADC_EXTERNALTRIGCONVEDGE_NONE;
  89              		.loc 1 57 3 is_stmt 1 view .LVU27
  90              		.loc 1 57 35 is_stmt 0 view .LVU28
  91 0036 0363     		str	r3, [r0, #48]
  58:Core/Src/adc.c ****   hadc2.Init.DMAContinuousRequests = DISABLE;
  92              		.loc 1 58 3 is_stmt 1 view .LVU29
  93              		.loc 1 58 36 is_stmt 0 view .LVU30
  94 0038 80F83830 		strb	r3, [r0, #56]
  59:Core/Src/adc.c ****   hadc2.Init.Overrun = ADC_OVR_DATA_PRESERVED;
  95              		.loc 1 59 3 is_stmt 1 view .LVU31
  96              		.loc 1 59 22 is_stmt 0 view .LVU32
  97 003c C363     		str	r3, [r0, #60]
  60:Core/Src/adc.c ****   hadc2.Init.OversamplingMode = DISABLE;
  98              		.loc 1 60 3 is_stmt 1 view .LVU33
  99              		.loc 1 60 31 is_stmt 0 view .LVU34
 100 003e 80F84030 		strb	r3, [r0, #64]
  61:Core/Src/adc.c ****   if (HAL_ADC_Init(&hadc2) != HAL_OK)
 101              		.loc 1 61 3 is_stmt 1 view .LVU35
 102              		.loc 1 61 7 is_stmt 0 view .LVU36
 103 0042 FFF7FEFF 		bl	HAL_ADC_Init
 104              	.LVL1:
 105              		.loc 1 61 6 view .LVU37
 106 0046 90B9     		cbnz	r0, .L5
 107              	.L2:
  62:Core/Src/adc.c ****   {
  63:Core/Src/adc.c ****     Error_Handler();
  64:Core/Src/adc.c ****   }
  65:Core/Src/adc.c **** 
ARM GAS  C:\Users\sr1\AppData\Local\Temp\ccT3oaUq.s 			page 4


  66:Core/Src/adc.c ****   /** Configure Regular Channel
  67:Core/Src/adc.c ****   */
  68:Core/Src/adc.c ****   sConfig.Channel = ADC_CHANNEL_11;
 108              		.loc 1 68 3 is_stmt 1 view .LVU38
 109              		.loc 1 68 19 is_stmt 0 view .LVU39
 110 0048 0E4B     		ldr	r3, .L7+8
 111 004a 0093     		str	r3, [sp]
  69:Core/Src/adc.c ****   sConfig.Rank = ADC_REGULAR_RANK_1;
 112              		.loc 1 69 3 is_stmt 1 view .LVU40
 113              		.loc 1 69 16 is_stmt 0 view .LVU41
 114 004c 0623     		movs	r3, #6
 115 004e 0193     		str	r3, [sp, #4]
  70:Core/Src/adc.c ****   sConfig.SamplingTime = ADC_SAMPLETIME_2CYCLES_5;
 116              		.loc 1 70 3 is_stmt 1 view .LVU42
 117              		.loc 1 70 24 is_stmt 0 view .LVU43
 118 0050 0023     		movs	r3, #0
 119 0052 0293     		str	r3, [sp, #8]
  71:Core/Src/adc.c ****   sConfig.SingleDiff = ADC_SINGLE_ENDED;
 120              		.loc 1 71 3 is_stmt 1 view .LVU44
 121              		.loc 1 71 22 is_stmt 0 view .LVU45
 122 0054 7F22     		movs	r2, #127
 123 0056 0392     		str	r2, [sp, #12]
  72:Core/Src/adc.c ****   sConfig.OffsetNumber = ADC_OFFSET_NONE;
 124              		.loc 1 72 3 is_stmt 1 view .LVU46
 125              		.loc 1 72 24 is_stmt 0 view .LVU47
 126 0058 0422     		movs	r2, #4
 127 005a 0492     		str	r2, [sp, #16]
  73:Core/Src/adc.c ****   sConfig.Offset = 0;
 128              		.loc 1 73 3 is_stmt 1 view .LVU48
 129              		.loc 1 73 18 is_stmt 0 view .LVU49
 130 005c 0593     		str	r3, [sp, #20]
  74:Core/Src/adc.c ****   if (HAL_ADC_ConfigChannel(&hadc2, &sConfig) != HAL_OK)
 131              		.loc 1 74 3 is_stmt 1 view .LVU50
 132              		.loc 1 74 7 is_stmt 0 view .LVU51
 133 005e 6946     		mov	r1, sp
 134 0060 0648     		ldr	r0, .L7
 135 0062 FFF7FEFF 		bl	HAL_ADC_ConfigChannel
 136              	.LVL2:
 137              		.loc 1 74 6 view .LVU52
 138 0066 28B9     		cbnz	r0, .L6
 139              	.L1:
  75:Core/Src/adc.c ****   {
  76:Core/Src/adc.c ****     Error_Handler();
  77:Core/Src/adc.c ****   }
  78:Core/Src/adc.c ****   /* USER CODE BEGIN ADC2_Init 2 */
  79:Core/Src/adc.c **** 
  80:Core/Src/adc.c ****   /* USER CODE END ADC2_Init 2 */
  81:Core/Src/adc.c **** 
  82:Core/Src/adc.c **** }
 140              		.loc 1 82 1 view .LVU53
 141 0068 09B0     		add	sp, sp, #36
 142              	.LCFI2:
 143              		.cfi_remember_state
 144              		.cfi_def_cfa_offset 4
 145              		@ sp needed
 146 006a 5DF804FB 		ldr	pc, [sp], #4
 147              	.L5:
ARM GAS  C:\Users\sr1\AppData\Local\Temp\ccT3oaUq.s 			page 5


 148              	.LCFI3:
 149              		.cfi_restore_state
  63:Core/Src/adc.c ****   }
 150              		.loc 1 63 5 is_stmt 1 view .LVU54
 151 006e FFF7FEFF 		bl	Error_Handler
 152              	.LVL3:
 153 0072 E9E7     		b	.L2
 154              	.L6:
  76:Core/Src/adc.c ****   }
 155              		.loc 1 76 5 view .LVU55
 156 0074 FFF7FEFF 		bl	Error_Handler
 157              	.LVL4:
 158              		.loc 1 82 1 is_stmt 0 view .LVU56
 159 0078 F6E7     		b	.L1
 160              	.L8:
 161 007a 00BF     		.align	2
 162              	.L7:
 163 007c 00000000 		.word	hadc2
 164 0080 00010050 		.word	1342177536
 165 0084 0008302E 		.word	774899712
 166              		.cfi_endproc
 167              	.LFE329:
 169              		.section	.text.HAL_ADC_MspInit,"ax",%progbits
 170              		.align	1
 171              		.global	HAL_ADC_MspInit
 172              		.syntax unified
 173              		.thumb
 174              		.thumb_func
 176              	HAL_ADC_MspInit:
 177              	.LVL5:
 178              	.LFB330:
  83:Core/Src/adc.c **** 
  84:Core/Src/adc.c **** void HAL_ADC_MspInit(ADC_HandleTypeDef* adcHandle)
  85:Core/Src/adc.c **** {
 179              		.loc 1 85 1 is_stmt 1 view -0
 180              		.cfi_startproc
 181              		@ args = 0, pretend = 0, frame = 120
 182              		@ frame_needed = 0, uses_anonymous_args = 0
 183              		.loc 1 85 1 is_stmt 0 view .LVU58
 184 0000 30B5     		push	{r4, r5, lr}
 185              	.LCFI4:
 186              		.cfi_def_cfa_offset 12
 187              		.cfi_offset 4, -12
 188              		.cfi_offset 5, -8
 189              		.cfi_offset 14, -4
 190 0002 9FB0     		sub	sp, sp, #124
 191              	.LCFI5:
 192              		.cfi_def_cfa_offset 136
 193 0004 0446     		mov	r4, r0
  86:Core/Src/adc.c **** 
  87:Core/Src/adc.c ****   GPIO_InitTypeDef GPIO_InitStruct = {0};
 194              		.loc 1 87 3 is_stmt 1 view .LVU59
 195              		.loc 1 87 20 is_stmt 0 view .LVU60
 196 0006 0021     		movs	r1, #0
 197 0008 1991     		str	r1, [sp, #100]
 198 000a 1A91     		str	r1, [sp, #104]
 199 000c 1B91     		str	r1, [sp, #108]
ARM GAS  C:\Users\sr1\AppData\Local\Temp\ccT3oaUq.s 			page 6


 200 000e 1C91     		str	r1, [sp, #112]
 201 0010 1D91     		str	r1, [sp, #116]
  88:Core/Src/adc.c ****   RCC_PeriphCLKInitTypeDef PeriphClkInit = {0};
 202              		.loc 1 88 3 is_stmt 1 view .LVU61
 203              		.loc 1 88 28 is_stmt 0 view .LVU62
 204 0012 5422     		movs	r2, #84
 205 0014 04A8     		add	r0, sp, #16
 206              	.LVL6:
 207              		.loc 1 88 28 view .LVU63
 208 0016 FFF7FEFF 		bl	memset
 209              	.LVL7:
  89:Core/Src/adc.c ****   if(adcHandle->Instance==ADC2)
 210              		.loc 1 89 3 is_stmt 1 view .LVU64
 211              		.loc 1 89 15 is_stmt 0 view .LVU65
 212 001a 2268     		ldr	r2, [r4]
 213              		.loc 1 89 5 view .LVU66
 214 001c 214B     		ldr	r3, .L15
 215 001e 9A42     		cmp	r2, r3
 216 0020 01D0     		beq	.L13
 217              	.LVL8:
 218              	.L9:
  90:Core/Src/adc.c ****   {
  91:Core/Src/adc.c ****   /* USER CODE BEGIN ADC2_MspInit 0 */
  92:Core/Src/adc.c **** 
  93:Core/Src/adc.c ****   /* USER CODE END ADC2_MspInit 0 */
  94:Core/Src/adc.c **** 
  95:Core/Src/adc.c ****   /** Initializes the peripherals clocks
  96:Core/Src/adc.c ****   */
  97:Core/Src/adc.c ****     PeriphClkInit.PeriphClockSelection = RCC_PERIPHCLK_ADC12;
  98:Core/Src/adc.c ****     PeriphClkInit.Adc12ClockSelection = RCC_ADC12CLKSOURCE_SYSCLK;
  99:Core/Src/adc.c ****     if (HAL_RCCEx_PeriphCLKConfig(&PeriphClkInit) != HAL_OK)
 100:Core/Src/adc.c ****     {
 101:Core/Src/adc.c ****       Error_Handler();
 102:Core/Src/adc.c ****     }
 103:Core/Src/adc.c **** 
 104:Core/Src/adc.c ****     /* ADC2 clock enable */
 105:Core/Src/adc.c ****     __HAL_RCC_ADC12_CLK_ENABLE();
 106:Core/Src/adc.c **** 
 107:Core/Src/adc.c ****     __HAL_RCC_GPIOA_CLK_ENABLE();
 108:Core/Src/adc.c ****     __HAL_RCC_GPIOC_CLK_ENABLE();
 109:Core/Src/adc.c ****     /**ADC2 GPIO Configuration
 110:Core/Src/adc.c ****     PA0     ------> ADC2_IN1
 111:Core/Src/adc.c ****     PC5     ------> ADC2_IN11
 112:Core/Src/adc.c ****     */
 113:Core/Src/adc.c ****     GPIO_InitStruct.Pin = AI_T_Pin;
 114:Core/Src/adc.c ****     GPIO_InitStruct.Mode = GPIO_MODE_ANALOG;
 115:Core/Src/adc.c ****     GPIO_InitStruct.Pull = GPIO_NOPULL;
 116:Core/Src/adc.c ****     HAL_GPIO_Init(AI_T_GPIO_Port, &GPIO_InitStruct);
 117:Core/Src/adc.c **** 
 118:Core/Src/adc.c ****     GPIO_InitStruct.Pin = AI_R_Pin;
 119:Core/Src/adc.c ****     GPIO_InitStruct.Mode = GPIO_MODE_ANALOG;
 120:Core/Src/adc.c ****     GPIO_InitStruct.Pull = GPIO_NOPULL;
 121:Core/Src/adc.c ****     HAL_GPIO_Init(AI_R_GPIO_Port, &GPIO_InitStruct);
 122:Core/Src/adc.c **** 
 123:Core/Src/adc.c ****   /* USER CODE BEGIN ADC2_MspInit 1 */
 124:Core/Src/adc.c **** 
 125:Core/Src/adc.c ****   /* USER CODE END ADC2_MspInit 1 */
ARM GAS  C:\Users\sr1\AppData\Local\Temp\ccT3oaUq.s 			page 7


 126:Core/Src/adc.c ****   }
 127:Core/Src/adc.c **** }
 219              		.loc 1 127 1 view .LVU67
 220 0022 1FB0     		add	sp, sp, #124
 221              	.LCFI6:
 222              		.cfi_remember_state
 223              		.cfi_def_cfa_offset 12
 224              		@ sp needed
 225 0024 30BD     		pop	{r4, r5, pc}
 226              	.LVL9:
 227              	.L13:
 228              	.LCFI7:
 229              		.cfi_restore_state
  97:Core/Src/adc.c ****     PeriphClkInit.Adc12ClockSelection = RCC_ADC12CLKSOURCE_SYSCLK;
 230              		.loc 1 97 5 is_stmt 1 view .LVU68
  97:Core/Src/adc.c ****     PeriphClkInit.Adc12ClockSelection = RCC_ADC12CLKSOURCE_SYSCLK;
 231              		.loc 1 97 40 is_stmt 0 view .LVU69
 232 0026 4FF40043 		mov	r3, #32768
 233 002a 0493     		str	r3, [sp, #16]
  98:Core/Src/adc.c ****     if (HAL_RCCEx_PeriphCLKConfig(&PeriphClkInit) != HAL_OK)
 234              		.loc 1 98 5 is_stmt 1 view .LVU70
  98:Core/Src/adc.c ****     if (HAL_RCCEx_PeriphCLKConfig(&PeriphClkInit) != HAL_OK)
 235              		.loc 1 98 39 is_stmt 0 view .LVU71
 236 002c 4FF00053 		mov	r3, #536870912
 237 0030 1593     		str	r3, [sp, #84]
  99:Core/Src/adc.c ****     {
 238              		.loc 1 99 5 is_stmt 1 view .LVU72
  99:Core/Src/adc.c ****     {
 239              		.loc 1 99 9 is_stmt 0 view .LVU73
 240 0032 04A8     		add	r0, sp, #16
 241 0034 FFF7FEFF 		bl	HAL_RCCEx_PeriphCLKConfig
 242              	.LVL10:
  99:Core/Src/adc.c ****     {
 243              		.loc 1 99 8 view .LVU74
 244 0038 0028     		cmp	r0, #0
 245 003a 2FD1     		bne	.L14
 246              	.L11:
 105:Core/Src/adc.c **** 
 247              		.loc 1 105 5 is_stmt 1 view .LVU75
 248              	.LBB2:
 105:Core/Src/adc.c **** 
 249              		.loc 1 105 5 view .LVU76
 105:Core/Src/adc.c **** 
 250              		.loc 1 105 5 view .LVU77
 251 003c 1A4B     		ldr	r3, .L15+4
 252 003e DA6C     		ldr	r2, [r3, #76]
 253 0040 42F40052 		orr	r2, r2, #8192
 254 0044 DA64     		str	r2, [r3, #76]
 105:Core/Src/adc.c **** 
 255              		.loc 1 105 5 view .LVU78
 256 0046 DA6C     		ldr	r2, [r3, #76]
 257 0048 02F40052 		and	r2, r2, #8192
 258 004c 0192     		str	r2, [sp, #4]
 105:Core/Src/adc.c **** 
 259              		.loc 1 105 5 view .LVU79
 260 004e 019A     		ldr	r2, [sp, #4]
 261              	.LBE2:
ARM GAS  C:\Users\sr1\AppData\Local\Temp\ccT3oaUq.s 			page 8


 105:Core/Src/adc.c **** 
 262              		.loc 1 105 5 view .LVU80
 107:Core/Src/adc.c ****     __HAL_RCC_GPIOC_CLK_ENABLE();
 263              		.loc 1 107 5 view .LVU81
 264              	.LBB3:
 107:Core/Src/adc.c ****     __HAL_RCC_GPIOC_CLK_ENABLE();
 265              		.loc 1 107 5 view .LVU82
 107:Core/Src/adc.c ****     __HAL_RCC_GPIOC_CLK_ENABLE();
 266              		.loc 1 107 5 view .LVU83
 267 0050 DA6C     		ldr	r2, [r3, #76]
 268 0052 42F00102 		orr	r2, r2, #1
 269 0056 DA64     		str	r2, [r3, #76]
 107:Core/Src/adc.c ****     __HAL_RCC_GPIOC_CLK_ENABLE();
 270              		.loc 1 107 5 view .LVU84
 271 0058 DA6C     		ldr	r2, [r3, #76]
 272 005a 02F00102 		and	r2, r2, #1
 273 005e 0292     		str	r2, [sp, #8]
 107:Core/Src/adc.c ****     __HAL_RCC_GPIOC_CLK_ENABLE();
 274              		.loc 1 107 5 view .LVU85
 275 0060 029A     		ldr	r2, [sp, #8]
 276              	.LBE3:
 107:Core/Src/adc.c ****     __HAL_RCC_GPIOC_CLK_ENABLE();
 277              		.loc 1 107 5 view .LVU86
 108:Core/Src/adc.c ****     /**ADC2 GPIO Configuration
 278              		.loc 1 108 5 view .LVU87
 279              	.LBB4:
 108:Core/Src/adc.c ****     /**ADC2 GPIO Configuration
 280              		.loc 1 108 5 view .LVU88
 108:Core/Src/adc.c ****     /**ADC2 GPIO Configuration
 281              		.loc 1 108 5 view .LVU89
 282 0062 DA6C     		ldr	r2, [r3, #76]
 283 0064 42F00402 		orr	r2, r2, #4
 284 0068 DA64     		str	r2, [r3, #76]
 108:Core/Src/adc.c ****     /**ADC2 GPIO Configuration
 285              		.loc 1 108 5 view .LVU90
 286 006a DB6C     		ldr	r3, [r3, #76]
 287 006c 03F00403 		and	r3, r3, #4
 288 0070 0393     		str	r3, [sp, #12]
 108:Core/Src/adc.c ****     /**ADC2 GPIO Configuration
 289              		.loc 1 108 5 view .LVU91
 290 0072 039B     		ldr	r3, [sp, #12]
 291              	.LBE4:
 108:Core/Src/adc.c ****     /**ADC2 GPIO Configuration
 292              		.loc 1 108 5 view .LVU92
 113:Core/Src/adc.c ****     GPIO_InitStruct.Mode = GPIO_MODE_ANALOG;
 293              		.loc 1 113 5 view .LVU93
 113:Core/Src/adc.c ****     GPIO_InitStruct.Mode = GPIO_MODE_ANALOG;
 294              		.loc 1 113 25 is_stmt 0 view .LVU94
 295 0074 0123     		movs	r3, #1
 296 0076 1993     		str	r3, [sp, #100]
 114:Core/Src/adc.c ****     GPIO_InitStruct.Pull = GPIO_NOPULL;
 297              		.loc 1 114 5 is_stmt 1 view .LVU95
 114:Core/Src/adc.c ****     GPIO_InitStruct.Pull = GPIO_NOPULL;
 298              		.loc 1 114 26 is_stmt 0 view .LVU96
 299 0078 0325     		movs	r5, #3
 300 007a 1A95     		str	r5, [sp, #104]
 115:Core/Src/adc.c ****     HAL_GPIO_Init(AI_T_GPIO_Port, &GPIO_InitStruct);
ARM GAS  C:\Users\sr1\AppData\Local\Temp\ccT3oaUq.s 			page 9


 301              		.loc 1 115 5 is_stmt 1 view .LVU97
 115:Core/Src/adc.c ****     HAL_GPIO_Init(AI_T_GPIO_Port, &GPIO_InitStruct);
 302              		.loc 1 115 26 is_stmt 0 view .LVU98
 303 007c 0024     		movs	r4, #0
 304              	.LVL11:
 115:Core/Src/adc.c ****     HAL_GPIO_Init(AI_T_GPIO_Port, &GPIO_InitStruct);
 305              		.loc 1 115 26 view .LVU99
 306 007e 1B94     		str	r4, [sp, #108]
 116:Core/Src/adc.c **** 
 307              		.loc 1 116 5 is_stmt 1 view .LVU100
 308 0080 19A9     		add	r1, sp, #100
 309 0082 4FF09040 		mov	r0, #1207959552
 310 0086 FFF7FEFF 		bl	HAL_GPIO_Init
 311              	.LVL12:
 118:Core/Src/adc.c ****     GPIO_InitStruct.Mode = GPIO_MODE_ANALOG;
 312              		.loc 1 118 5 view .LVU101
 118:Core/Src/adc.c ****     GPIO_InitStruct.Mode = GPIO_MODE_ANALOG;
 313              		.loc 1 118 25 is_stmt 0 view .LVU102
 314 008a 2023     		movs	r3, #32
 315 008c 1993     		str	r3, [sp, #100]
 119:Core/Src/adc.c ****     GPIO_InitStruct.Pull = GPIO_NOPULL;
 316              		.loc 1 119 5 is_stmt 1 view .LVU103
 119:Core/Src/adc.c ****     GPIO_InitStruct.Pull = GPIO_NOPULL;
 317              		.loc 1 119 26 is_stmt 0 view .LVU104
 318 008e 1A95     		str	r5, [sp, #104]
 120:Core/Src/adc.c ****     HAL_GPIO_Init(AI_R_GPIO_Port, &GPIO_InitStruct);
 319              		.loc 1 120 5 is_stmt 1 view .LVU105
 120:Core/Src/adc.c ****     HAL_GPIO_Init(AI_R_GPIO_Port, &GPIO_InitStruct);
 320              		.loc 1 120 26 is_stmt 0 view .LVU106
 321 0090 1B94     		str	r4, [sp, #108]
 121:Core/Src/adc.c **** 
 322              		.loc 1 121 5 is_stmt 1 view .LVU107
 323 0092 19A9     		add	r1, sp, #100
 324 0094 0548     		ldr	r0, .L15+8
 325 0096 FFF7FEFF 		bl	HAL_GPIO_Init
 326              	.LVL13:
 327              		.loc 1 127 1 is_stmt 0 view .LVU108
 328 009a C2E7     		b	.L9
 329              	.LVL14:
 330              	.L14:
 101:Core/Src/adc.c ****     }
 331              		.loc 1 101 7 is_stmt 1 view .LVU109
 332 009c FFF7FEFF 		bl	Error_Handler
 333              	.LVL15:
 334 00a0 CCE7     		b	.L11
 335              	.L16:
 336 00a2 00BF     		.align	2
 337              	.L15:
 338 00a4 00010050 		.word	1342177536
 339 00a8 00100240 		.word	1073876992
 340 00ac 00080048 		.word	1207961600
 341              		.cfi_endproc
 342              	.LFE330:
 344              		.section	.text.HAL_ADC_MspDeInit,"ax",%progbits
 345              		.align	1
 346              		.global	HAL_ADC_MspDeInit
 347              		.syntax unified
ARM GAS  C:\Users\sr1\AppData\Local\Temp\ccT3oaUq.s 			page 10


 348              		.thumb
 349              		.thumb_func
 351              	HAL_ADC_MspDeInit:
 352              	.LVL16:
 353              	.LFB331:
 128:Core/Src/adc.c **** 
 129:Core/Src/adc.c **** void HAL_ADC_MspDeInit(ADC_HandleTypeDef* adcHandle)
 130:Core/Src/adc.c **** {
 354              		.loc 1 130 1 view -0
 355              		.cfi_startproc
 356              		@ args = 0, pretend = 0, frame = 0
 357              		@ frame_needed = 0, uses_anonymous_args = 0
 358              		.loc 1 130 1 is_stmt 0 view .LVU111
 359 0000 08B5     		push	{r3, lr}
 360              	.LCFI8:
 361              		.cfi_def_cfa_offset 8
 362              		.cfi_offset 3, -8
 363              		.cfi_offset 14, -4
 131:Core/Src/adc.c **** 
 132:Core/Src/adc.c ****   if(adcHandle->Instance==ADC2)
 364              		.loc 1 132 3 is_stmt 1 view .LVU112
 365              		.loc 1 132 15 is_stmt 0 view .LVU113
 366 0002 0268     		ldr	r2, [r0]
 367              		.loc 1 132 5 view .LVU114
 368 0004 094B     		ldr	r3, .L21
 369 0006 9A42     		cmp	r2, r3
 370 0008 00D0     		beq	.L20
 371              	.LVL17:
 372              	.L17:
 133:Core/Src/adc.c ****   {
 134:Core/Src/adc.c ****   /* USER CODE BEGIN ADC2_MspDeInit 0 */
 135:Core/Src/adc.c **** 
 136:Core/Src/adc.c ****   /* USER CODE END ADC2_MspDeInit 0 */
 137:Core/Src/adc.c ****     /* Peripheral clock disable */
 138:Core/Src/adc.c ****     __HAL_RCC_ADC12_CLK_DISABLE();
 139:Core/Src/adc.c **** 
 140:Core/Src/adc.c ****     /**ADC2 GPIO Configuration
 141:Core/Src/adc.c ****     PA0     ------> ADC2_IN1
 142:Core/Src/adc.c ****     PC5     ------> ADC2_IN11
 143:Core/Src/adc.c ****     */
 144:Core/Src/adc.c ****     HAL_GPIO_DeInit(AI_T_GPIO_Port, AI_T_Pin);
 145:Core/Src/adc.c **** 
 146:Core/Src/adc.c ****     HAL_GPIO_DeInit(AI_R_GPIO_Port, AI_R_Pin);
 147:Core/Src/adc.c **** 
 148:Core/Src/adc.c ****   /* USER CODE BEGIN ADC2_MspDeInit 1 */
 149:Core/Src/adc.c **** 
 150:Core/Src/adc.c ****   /* USER CODE END ADC2_MspDeInit 1 */
 151:Core/Src/adc.c ****   }
 152:Core/Src/adc.c **** }
 373              		.loc 1 152 1 view .LVU115
 374 000a 08BD     		pop	{r3, pc}
 375              	.LVL18:
 376              	.L20:
 138:Core/Src/adc.c **** 
 377              		.loc 1 138 5 is_stmt 1 view .LVU116
 378 000c 084A     		ldr	r2, .L21+4
 379 000e D36C     		ldr	r3, [r2, #76]
ARM GAS  C:\Users\sr1\AppData\Local\Temp\ccT3oaUq.s 			page 11


 380 0010 23F40053 		bic	r3, r3, #8192
 381 0014 D364     		str	r3, [r2, #76]
 144:Core/Src/adc.c **** 
 382              		.loc 1 144 5 view .LVU117
 383 0016 0121     		movs	r1, #1
 384 0018 4FF09040 		mov	r0, #1207959552
 385              	.LVL19:
 144:Core/Src/adc.c **** 
 386              		.loc 1 144 5 is_stmt 0 view .LVU118
 387 001c FFF7FEFF 		bl	HAL_GPIO_DeInit
 388              	.LVL20:
 146:Core/Src/adc.c **** 
 389              		.loc 1 146 5 is_stmt 1 view .LVU119
 390 0020 2021     		movs	r1, #32
 391 0022 0448     		ldr	r0, .L21+8
 392 0024 FFF7FEFF 		bl	HAL_GPIO_DeInit
 393              	.LVL21:
 394              		.loc 1 152 1 is_stmt 0 view .LVU120
 395 0028 EFE7     		b	.L17
 396              	.L22:
 397 002a 00BF     		.align	2
 398              	.L21:
 399 002c 00010050 		.word	1342177536
 400 0030 00100240 		.word	1073876992
 401 0034 00080048 		.word	1207961600
 402              		.cfi_endproc
 403              	.LFE331:
 405              		.global	hadc2
 406              		.section	.bss.hadc2,"aw",%nobits
 407              		.align	2
 410              	hadc2:
 411 0000 00000000 		.space	108
 411      00000000 
 411      00000000 
 411      00000000 
 411      00000000 
 412              		.text
 413              	.Letext0:
 414              		.file 2 "c:\\program files\\vscodestmtools\\arm-none-eabi-gcc\\12.2.1-1.2.1\\.content\\arm-none-ea
 415              		.file 3 "c:\\program files\\vscodestmtools\\arm-none-eabi-gcc\\12.2.1-1.2.1\\.content\\arm-none-ea
 416              		.file 4 "Drivers/CMSIS/Device/ST/STM32G4xx/Include/stm32g474xx.h"
 417              		.file 5 "Drivers/CMSIS/Device/ST/STM32G4xx/Include/stm32g4xx.h"
 418              		.file 6 "Drivers/STM32G4xx_HAL_Driver/Inc/stm32g4xx_hal_def.h"
 419              		.file 7 "Drivers/STM32G4xx_HAL_Driver/Inc/stm32g4xx_hal_rcc_ex.h"
 420              		.file 8 "Drivers/STM32G4xx_HAL_Driver/Inc/stm32g4xx_hal_gpio.h"
 421              		.file 9 "Drivers/STM32G4xx_HAL_Driver/Inc/stm32g4xx_hal_dma.h"
 422              		.file 10 "Drivers/STM32G4xx_HAL_Driver/Inc/stm32g4xx_hal_adc.h"
 423              		.file 11 "Core/Inc/adc.h"
 424              		.file 12 "Core/Inc/main.h"
 425              		.file 13 "<built-in>"
ARM GAS  C:\Users\sr1\AppData\Local\Temp\ccT3oaUq.s 			page 12

