ARM GAS  C:\Users\T1\AppData\Local\Temp\cciVZ2by.s 			page 1


   1              		.cpu cortex-m4
   2              		.arch armv7e-m
   3              		.fpu fpv4-sp-d16
   4              		.eabi_attribute 27, 1
   5              		.eabi_attribute 28, 1
   6              		.eabi_attribute 20, 1
   7              		.eabi_attribute 21, 1
   8              		.eabi_attribute 23, 3
   9              		.eabi_attribute 24, 1
  10              		.eabi_attribute 25, 1
  11              		.eabi_attribute 26, 1
  12              		.eabi_attribute 30, 1
  13              		.eabi_attribute 34, 1
  14              		.eabi_attribute 18, 4
  15              		.file	"stm32g4xx_hal_comp.c"
  16              		.text
  17              	.Ltext0:
  18              		.cfi_sections	.debug_frame
  19              		.file 1 "Drivers/STM32G4xx_HAL_Driver/Src/stm32g4xx_hal_comp.c"
  20              		.section	.text.HAL_COMP_MspInit,"ax",%progbits
  21              		.align	1
  22              		.weak	HAL_COMP_MspInit
  23              		.syntax unified
  24              		.thumb
  25              		.thumb_func
  27              	HAL_COMP_MspInit:
  28              	.LVL0:
  29              	.LFB363:
   1:Drivers/STM32G4xx_HAL_Driver/Src/stm32g4xx_hal_comp.c **** /**
   2:Drivers/STM32G4xx_HAL_Driver/Src/stm32g4xx_hal_comp.c ****   ******************************************************************************
   3:Drivers/STM32G4xx_HAL_Driver/Src/stm32g4xx_hal_comp.c ****   * @file    stm32g4xx_hal_comp.c
   4:Drivers/STM32G4xx_HAL_Driver/Src/stm32g4xx_hal_comp.c ****   * @author  MCD Application Team
   5:Drivers/STM32G4xx_HAL_Driver/Src/stm32g4xx_hal_comp.c ****   * @brief   COMP HAL module driver.
   6:Drivers/STM32G4xx_HAL_Driver/Src/stm32g4xx_hal_comp.c ****   *          This file provides firmware functions to manage the following
   7:Drivers/STM32G4xx_HAL_Driver/Src/stm32g4xx_hal_comp.c ****   *          functionalities of the COMP peripheral:
   8:Drivers/STM32G4xx_HAL_Driver/Src/stm32g4xx_hal_comp.c ****   *           + Initialization and de-initialization functions
   9:Drivers/STM32G4xx_HAL_Driver/Src/stm32g4xx_hal_comp.c ****   *           + Peripheral control functions
  10:Drivers/STM32G4xx_HAL_Driver/Src/stm32g4xx_hal_comp.c ****   *           + Peripheral state functions
  11:Drivers/STM32G4xx_HAL_Driver/Src/stm32g4xx_hal_comp.c ****   *
  12:Drivers/STM32G4xx_HAL_Driver/Src/stm32g4xx_hal_comp.c ****   ******************************************************************************
  13:Drivers/STM32G4xx_HAL_Driver/Src/stm32g4xx_hal_comp.c ****   * @attention
  14:Drivers/STM32G4xx_HAL_Driver/Src/stm32g4xx_hal_comp.c ****   *
  15:Drivers/STM32G4xx_HAL_Driver/Src/stm32g4xx_hal_comp.c ****   * Copyright (c) 2019 STMicroelectronics.
  16:Drivers/STM32G4xx_HAL_Driver/Src/stm32g4xx_hal_comp.c ****   * All rights reserved.
  17:Drivers/STM32G4xx_HAL_Driver/Src/stm32g4xx_hal_comp.c ****   *
  18:Drivers/STM32G4xx_HAL_Driver/Src/stm32g4xx_hal_comp.c ****   * This software is licensed under terms that can be found in the LICENSE file
  19:Drivers/STM32G4xx_HAL_Driver/Src/stm32g4xx_hal_comp.c ****   * in the root directory of this software component.
  20:Drivers/STM32G4xx_HAL_Driver/Src/stm32g4xx_hal_comp.c ****   * If no LICENSE file comes with this software, it is provided AS-IS.
  21:Drivers/STM32G4xx_HAL_Driver/Src/stm32g4xx_hal_comp.c ****   *
  22:Drivers/STM32G4xx_HAL_Driver/Src/stm32g4xx_hal_comp.c ****   ******************************************************************************
  23:Drivers/STM32G4xx_HAL_Driver/Src/stm32g4xx_hal_comp.c ****   @verbatim
  24:Drivers/STM32G4xx_HAL_Driver/Src/stm32g4xx_hal_comp.c **** ================================================================================
  25:Drivers/STM32G4xx_HAL_Driver/Src/stm32g4xx_hal_comp.c ****           ##### COMP Peripheral features #####
  26:Drivers/STM32G4xx_HAL_Driver/Src/stm32g4xx_hal_comp.c **** ================================================================================
  27:Drivers/STM32G4xx_HAL_Driver/Src/stm32g4xx_hal_comp.c **** 
  28:Drivers/STM32G4xx_HAL_Driver/Src/stm32g4xx_hal_comp.c ****   [..]
  29:Drivers/STM32G4xx_HAL_Driver/Src/stm32g4xx_hal_comp.c ****       The STM32G4xx device family integrates seven analog comparators instances:
ARM GAS  C:\Users\T1\AppData\Local\Temp\cciVZ2by.s 			page 2


  30:Drivers/STM32G4xx_HAL_Driver/Src/stm32g4xx_hal_comp.c ****       COMP1, COMP2, COMP3, COMP4, COMP5, COMP6 and COMP7.
  31:Drivers/STM32G4xx_HAL_Driver/Src/stm32g4xx_hal_comp.c ****       (#) Comparators input minus (inverting input) and input plus (non inverting input)
  32:Drivers/STM32G4xx_HAL_Driver/Src/stm32g4xx_hal_comp.c ****           can be set to internal references or to GPIO pins
  33:Drivers/STM32G4xx_HAL_Driver/Src/stm32g4xx_hal_comp.c ****           (refer to GPIO list in reference manual).
  34:Drivers/STM32G4xx_HAL_Driver/Src/stm32g4xx_hal_comp.c **** 
  35:Drivers/STM32G4xx_HAL_Driver/Src/stm32g4xx_hal_comp.c ****       (#) Comparators output level is available using HAL_COMP_GetOutputLevel()
  36:Drivers/STM32G4xx_HAL_Driver/Src/stm32g4xx_hal_comp.c ****           and can be redirected to other peripherals: GPIO pins (in mode
  37:Drivers/STM32G4xx_HAL_Driver/Src/stm32g4xx_hal_comp.c ****           alternate functions for comparator), timers.
  38:Drivers/STM32G4xx_HAL_Driver/Src/stm32g4xx_hal_comp.c ****           (refer to GPIO list in reference manual).
  39:Drivers/STM32G4xx_HAL_Driver/Src/stm32g4xx_hal_comp.c **** 
  40:Drivers/STM32G4xx_HAL_Driver/Src/stm32g4xx_hal_comp.c ****       (#) The comparators have interrupt capability through the EXTI controller
  41:Drivers/STM32G4xx_HAL_Driver/Src/stm32g4xx_hal_comp.c ****           with wake-up from sleep and stop modes.
  42:Drivers/STM32G4xx_HAL_Driver/Src/stm32g4xx_hal_comp.c **** 
  43:Drivers/STM32G4xx_HAL_Driver/Src/stm32g4xx_hal_comp.c ****           From the corresponding IRQ handler, the right interrupt source can be retrieved
  44:Drivers/STM32G4xx_HAL_Driver/Src/stm32g4xx_hal_comp.c ****           using macro __HAL_COMP_COMPx_EXTI_GET_FLAG().
  45:Drivers/STM32G4xx_HAL_Driver/Src/stm32g4xx_hal_comp.c **** 
  46:Drivers/STM32G4xx_HAL_Driver/Src/stm32g4xx_hal_comp.c ****             ##### How to use this driver #####
  47:Drivers/STM32G4xx_HAL_Driver/Src/stm32g4xx_hal_comp.c **** ================================================================================
  48:Drivers/STM32G4xx_HAL_Driver/Src/stm32g4xx_hal_comp.c ****   [..]
  49:Drivers/STM32G4xx_HAL_Driver/Src/stm32g4xx_hal_comp.c ****       This driver provides functions to configure and program the comparator instances
  50:Drivers/STM32G4xx_HAL_Driver/Src/stm32g4xx_hal_comp.c ****       of STM32G4xx devices.
  51:Drivers/STM32G4xx_HAL_Driver/Src/stm32g4xx_hal_comp.c **** 
  52:Drivers/STM32G4xx_HAL_Driver/Src/stm32g4xx_hal_comp.c ****       To use the comparator, perform the following steps:
  53:Drivers/STM32G4xx_HAL_Driver/Src/stm32g4xx_hal_comp.c **** 
  54:Drivers/STM32G4xx_HAL_Driver/Src/stm32g4xx_hal_comp.c ****       (#)  Initialize the COMP low level resources by implementing the HAL_COMP_MspInit():
  55:Drivers/STM32G4xx_HAL_Driver/Src/stm32g4xx_hal_comp.c ****       (++) Configure the GPIO connected to comparator inputs plus and minus in analog mode
  56:Drivers/STM32G4xx_HAL_Driver/Src/stm32g4xx_hal_comp.c ****            using HAL_GPIO_Init().
  57:Drivers/STM32G4xx_HAL_Driver/Src/stm32g4xx_hal_comp.c ****       (++) If needed, configure the GPIO connected to comparator output in alternate function mode
  58:Drivers/STM32G4xx_HAL_Driver/Src/stm32g4xx_hal_comp.c ****            using HAL_GPIO_Init().
  59:Drivers/STM32G4xx_HAL_Driver/Src/stm32g4xx_hal_comp.c ****       (++) If required enable the COMP interrupt by configuring and enabling EXTI line in Interrupt
  60:Drivers/STM32G4xx_HAL_Driver/Src/stm32g4xx_hal_comp.c ****            selecting the desired sensitivity level using HAL_GPIO_Init() function. After that enabl
  61:Drivers/STM32G4xx_HAL_Driver/Src/stm32g4xx_hal_comp.c ****            interrupt vector using HAL_NVIC_EnableIRQ() function.
  62:Drivers/STM32G4xx_HAL_Driver/Src/stm32g4xx_hal_comp.c **** 
  63:Drivers/STM32G4xx_HAL_Driver/Src/stm32g4xx_hal_comp.c ****       (#) Configure the comparator using HAL_COMP_Init() function:
  64:Drivers/STM32G4xx_HAL_Driver/Src/stm32g4xx_hal_comp.c ****       (++) Select the input minus (inverting input)
  65:Drivers/STM32G4xx_HAL_Driver/Src/stm32g4xx_hal_comp.c ****       (++) Select the input plus (non-inverting input)
  66:Drivers/STM32G4xx_HAL_Driver/Src/stm32g4xx_hal_comp.c ****       (++) Select the hysteresis
  67:Drivers/STM32G4xx_HAL_Driver/Src/stm32g4xx_hal_comp.c ****       (++) Select the blanking source
  68:Drivers/STM32G4xx_HAL_Driver/Src/stm32g4xx_hal_comp.c ****       (++) Select the output polarity
  69:Drivers/STM32G4xx_HAL_Driver/Src/stm32g4xx_hal_comp.c **** 
  70:Drivers/STM32G4xx_HAL_Driver/Src/stm32g4xx_hal_comp.c ****       -@@- HAL_COMP_Init() calls internally __HAL_RCC_SYSCFG_CLK_ENABLE()
  71:Drivers/STM32G4xx_HAL_Driver/Src/stm32g4xx_hal_comp.c ****           to enable internal control clock of the comparators.
  72:Drivers/STM32G4xx_HAL_Driver/Src/stm32g4xx_hal_comp.c ****           However, this is a legacy strategy. In future STM32 families,
  73:Drivers/STM32G4xx_HAL_Driver/Src/stm32g4xx_hal_comp.c ****           COMP clock enable must be implemented by user in "HAL_COMP_MspInit()".
  74:Drivers/STM32G4xx_HAL_Driver/Src/stm32g4xx_hal_comp.c ****           Therefore, for compatibility anticipation, it is recommended to
  75:Drivers/STM32G4xx_HAL_Driver/Src/stm32g4xx_hal_comp.c ****           implement __HAL_RCC_SYSCFG_CLK_ENABLE() in "HAL_COMP_MspInit()".
  76:Drivers/STM32G4xx_HAL_Driver/Src/stm32g4xx_hal_comp.c **** 
  77:Drivers/STM32G4xx_HAL_Driver/Src/stm32g4xx_hal_comp.c ****       (#) Reconfiguration on-the-fly of comparator can be done by calling again
  78:Drivers/STM32G4xx_HAL_Driver/Src/stm32g4xx_hal_comp.c ****           function HAL_COMP_Init() with new input structure parameters values.
  79:Drivers/STM32G4xx_HAL_Driver/Src/stm32g4xx_hal_comp.c **** 
  80:Drivers/STM32G4xx_HAL_Driver/Src/stm32g4xx_hal_comp.c ****       (#) Enable the comparator using HAL_COMP_Start() function.
  81:Drivers/STM32G4xx_HAL_Driver/Src/stm32g4xx_hal_comp.c **** 
  82:Drivers/STM32G4xx_HAL_Driver/Src/stm32g4xx_hal_comp.c ****       (#) Use HAL_COMP_TriggerCallback() or HAL_COMP_GetOutputLevel() functions
  83:Drivers/STM32G4xx_HAL_Driver/Src/stm32g4xx_hal_comp.c ****           to manage comparator outputs (events and output level).
  84:Drivers/STM32G4xx_HAL_Driver/Src/stm32g4xx_hal_comp.c **** 
  85:Drivers/STM32G4xx_HAL_Driver/Src/stm32g4xx_hal_comp.c ****       (#) Disable the comparator using HAL_COMP_Stop() function.
  86:Drivers/STM32G4xx_HAL_Driver/Src/stm32g4xx_hal_comp.c **** 
ARM GAS  C:\Users\T1\AppData\Local\Temp\cciVZ2by.s 			page 3


  87:Drivers/STM32G4xx_HAL_Driver/Src/stm32g4xx_hal_comp.c ****       (#) De-initialize the comparator using HAL_COMP_DeInit() function.
  88:Drivers/STM32G4xx_HAL_Driver/Src/stm32g4xx_hal_comp.c **** 
  89:Drivers/STM32G4xx_HAL_Driver/Src/stm32g4xx_hal_comp.c ****       (#) For safety purpose, comparator configuration can be locked using HAL_COMP_Lock() function
  90:Drivers/STM32G4xx_HAL_Driver/Src/stm32g4xx_hal_comp.c ****           The only way to unlock the comparator is a device hardware reset.
  91:Drivers/STM32G4xx_HAL_Driver/Src/stm32g4xx_hal_comp.c **** 
  92:Drivers/STM32G4xx_HAL_Driver/Src/stm32g4xx_hal_comp.c ****     *** Callback registration ***
  93:Drivers/STM32G4xx_HAL_Driver/Src/stm32g4xx_hal_comp.c ****     =============================================
  94:Drivers/STM32G4xx_HAL_Driver/Src/stm32g4xx_hal_comp.c ****     [..]
  95:Drivers/STM32G4xx_HAL_Driver/Src/stm32g4xx_hal_comp.c **** 
  96:Drivers/STM32G4xx_HAL_Driver/Src/stm32g4xx_hal_comp.c ****      The compilation flag USE_HAL_COMP_REGISTER_CALLBACKS, when set to 1,
  97:Drivers/STM32G4xx_HAL_Driver/Src/stm32g4xx_hal_comp.c ****      allows the user to configure dynamically the driver callbacks.
  98:Drivers/STM32G4xx_HAL_Driver/Src/stm32g4xx_hal_comp.c ****      Use Functions HAL_COMP_RegisterCallback()
  99:Drivers/STM32G4xx_HAL_Driver/Src/stm32g4xx_hal_comp.c ****      to register an interrupt callback.
 100:Drivers/STM32G4xx_HAL_Driver/Src/stm32g4xx_hal_comp.c ****     [..]
 101:Drivers/STM32G4xx_HAL_Driver/Src/stm32g4xx_hal_comp.c **** 
 102:Drivers/STM32G4xx_HAL_Driver/Src/stm32g4xx_hal_comp.c ****      Function HAL_COMP_RegisterCallback() allows to register following callbacks:
 103:Drivers/STM32G4xx_HAL_Driver/Src/stm32g4xx_hal_comp.c ****        (+) TriggerCallback       : callback for COMP trigger.
 104:Drivers/STM32G4xx_HAL_Driver/Src/stm32g4xx_hal_comp.c ****        (+) MspInitCallback       : callback for Msp Init.
 105:Drivers/STM32G4xx_HAL_Driver/Src/stm32g4xx_hal_comp.c ****        (+) MspDeInitCallback     : callback for Msp DeInit.
 106:Drivers/STM32G4xx_HAL_Driver/Src/stm32g4xx_hal_comp.c ****      This function takes as parameters the HAL peripheral handle, the Callback ID
 107:Drivers/STM32G4xx_HAL_Driver/Src/stm32g4xx_hal_comp.c ****      and a pointer to the user callback function.
 108:Drivers/STM32G4xx_HAL_Driver/Src/stm32g4xx_hal_comp.c ****     [..]
 109:Drivers/STM32G4xx_HAL_Driver/Src/stm32g4xx_hal_comp.c **** 
 110:Drivers/STM32G4xx_HAL_Driver/Src/stm32g4xx_hal_comp.c ****      Use function HAL_COMP_UnRegisterCallback to reset a callback to the default
 111:Drivers/STM32G4xx_HAL_Driver/Src/stm32g4xx_hal_comp.c ****      weak function.
 112:Drivers/STM32G4xx_HAL_Driver/Src/stm32g4xx_hal_comp.c ****     [..]
 113:Drivers/STM32G4xx_HAL_Driver/Src/stm32g4xx_hal_comp.c **** 
 114:Drivers/STM32G4xx_HAL_Driver/Src/stm32g4xx_hal_comp.c ****      HAL_COMP_UnRegisterCallback takes as parameters the HAL peripheral handle,
 115:Drivers/STM32G4xx_HAL_Driver/Src/stm32g4xx_hal_comp.c ****      and the Callback ID.
 116:Drivers/STM32G4xx_HAL_Driver/Src/stm32g4xx_hal_comp.c ****      This function allows to reset following callbacks:
 117:Drivers/STM32G4xx_HAL_Driver/Src/stm32g4xx_hal_comp.c ****        (+) TriggerCallback       : callback for COMP trigger.
 118:Drivers/STM32G4xx_HAL_Driver/Src/stm32g4xx_hal_comp.c ****        (+) MspInitCallback       : callback for Msp Init.
 119:Drivers/STM32G4xx_HAL_Driver/Src/stm32g4xx_hal_comp.c ****        (+) MspDeInitCallback     : callback for Msp DeInit.
 120:Drivers/STM32G4xx_HAL_Driver/Src/stm32g4xx_hal_comp.c ****      [..]
 121:Drivers/STM32G4xx_HAL_Driver/Src/stm32g4xx_hal_comp.c **** 
 122:Drivers/STM32G4xx_HAL_Driver/Src/stm32g4xx_hal_comp.c ****      By default, after the HAL_COMP_Init() and when the state is HAL_COMP_STATE_RESET
 123:Drivers/STM32G4xx_HAL_Driver/Src/stm32g4xx_hal_comp.c ****      all callbacks are set to the corresponding weak functions:
 124:Drivers/STM32G4xx_HAL_Driver/Src/stm32g4xx_hal_comp.c ****      example HAL_COMP_TriggerCallback().
 125:Drivers/STM32G4xx_HAL_Driver/Src/stm32g4xx_hal_comp.c ****      Exception done for MspInit and MspDeInit functions that are
 126:Drivers/STM32G4xx_HAL_Driver/Src/stm32g4xx_hal_comp.c ****      reset to the legacy weak functions in the HAL_COMP_Init()/ HAL_COMP_DeInit() only when
 127:Drivers/STM32G4xx_HAL_Driver/Src/stm32g4xx_hal_comp.c ****      these callbacks are null (not registered beforehand).
 128:Drivers/STM32G4xx_HAL_Driver/Src/stm32g4xx_hal_comp.c ****     [..]
 129:Drivers/STM32G4xx_HAL_Driver/Src/stm32g4xx_hal_comp.c **** 
 130:Drivers/STM32G4xx_HAL_Driver/Src/stm32g4xx_hal_comp.c ****      If MspInit or MspDeInit are not null, the HAL_COMP_Init()/ HAL_COMP_DeInit()
 131:Drivers/STM32G4xx_HAL_Driver/Src/stm32g4xx_hal_comp.c ****      keep and use the user MspInit/MspDeInit callbacks (registered beforehand) whatever the state.
 132:Drivers/STM32G4xx_HAL_Driver/Src/stm32g4xx_hal_comp.c ****      [..]
 133:Drivers/STM32G4xx_HAL_Driver/Src/stm32g4xx_hal_comp.c **** 
 134:Drivers/STM32G4xx_HAL_Driver/Src/stm32g4xx_hal_comp.c ****      Callbacks can be registered/unregistered in HAL_COMP_STATE_READY state only.
 135:Drivers/STM32G4xx_HAL_Driver/Src/stm32g4xx_hal_comp.c ****      Exception done MspInit/MspDeInit functions that can be registered/unregistered
 136:Drivers/STM32G4xx_HAL_Driver/Src/stm32g4xx_hal_comp.c ****      in HAL_COMP_STATE_READY or HAL_COMP_STATE_RESET state,
 137:Drivers/STM32G4xx_HAL_Driver/Src/stm32g4xx_hal_comp.c ****      thus registered (user) MspInit/DeInit callbacks can be used during the Init/DeInit.
 138:Drivers/STM32G4xx_HAL_Driver/Src/stm32g4xx_hal_comp.c ****     [..]
 139:Drivers/STM32G4xx_HAL_Driver/Src/stm32g4xx_hal_comp.c **** 
 140:Drivers/STM32G4xx_HAL_Driver/Src/stm32g4xx_hal_comp.c ****      Then, the user first registers the MspInit/MspDeInit user callbacks
 141:Drivers/STM32G4xx_HAL_Driver/Src/stm32g4xx_hal_comp.c ****      using HAL_COMP_RegisterCallback() before calling HAL_COMP_DeInit()
 142:Drivers/STM32G4xx_HAL_Driver/Src/stm32g4xx_hal_comp.c ****      or HAL_COMP_Init() function.
 143:Drivers/STM32G4xx_HAL_Driver/Src/stm32g4xx_hal_comp.c ****      [..]
ARM GAS  C:\Users\T1\AppData\Local\Temp\cciVZ2by.s 			page 4


 144:Drivers/STM32G4xx_HAL_Driver/Src/stm32g4xx_hal_comp.c **** 
 145:Drivers/STM32G4xx_HAL_Driver/Src/stm32g4xx_hal_comp.c ****      When the compilation flag USE_HAL_COMP_REGISTER_CALLBACKS is set to 0 or
 146:Drivers/STM32G4xx_HAL_Driver/Src/stm32g4xx_hal_comp.c ****      not defined, the callback registration feature is not available and all callbacks
 147:Drivers/STM32G4xx_HAL_Driver/Src/stm32g4xx_hal_comp.c ****      are set to the corresponding weak functions.
 148:Drivers/STM32G4xx_HAL_Driver/Src/stm32g4xx_hal_comp.c **** 
 149:Drivers/STM32G4xx_HAL_Driver/Src/stm32g4xx_hal_comp.c ****   @endverbatim
 150:Drivers/STM32G4xx_HAL_Driver/Src/stm32g4xx_hal_comp.c ****   ******************************************************************************
 151:Drivers/STM32G4xx_HAL_Driver/Src/stm32g4xx_hal_comp.c **** 
 152:Drivers/STM32G4xx_HAL_Driver/Src/stm32g4xx_hal_comp.c ****   */
 153:Drivers/STM32G4xx_HAL_Driver/Src/stm32g4xx_hal_comp.c **** 
 154:Drivers/STM32G4xx_HAL_Driver/Src/stm32g4xx_hal_comp.c **** /* Includes ------------------------------------------------------------------*/
 155:Drivers/STM32G4xx_HAL_Driver/Src/stm32g4xx_hal_comp.c **** #include "stm32g4xx_hal.h"
 156:Drivers/STM32G4xx_HAL_Driver/Src/stm32g4xx_hal_comp.c **** 
 157:Drivers/STM32G4xx_HAL_Driver/Src/stm32g4xx_hal_comp.c **** /** @addtogroup STM32G4xx_HAL_Driver
 158:Drivers/STM32G4xx_HAL_Driver/Src/stm32g4xx_hal_comp.c ****   * @{
 159:Drivers/STM32G4xx_HAL_Driver/Src/stm32g4xx_hal_comp.c ****   */
 160:Drivers/STM32G4xx_HAL_Driver/Src/stm32g4xx_hal_comp.c **** 
 161:Drivers/STM32G4xx_HAL_Driver/Src/stm32g4xx_hal_comp.c **** #ifdef HAL_COMP_MODULE_ENABLED
 162:Drivers/STM32G4xx_HAL_Driver/Src/stm32g4xx_hal_comp.c **** 
 163:Drivers/STM32G4xx_HAL_Driver/Src/stm32g4xx_hal_comp.c **** 
 164:Drivers/STM32G4xx_HAL_Driver/Src/stm32g4xx_hal_comp.c **** 
 165:Drivers/STM32G4xx_HAL_Driver/Src/stm32g4xx_hal_comp.c **** /** @defgroup COMP COMP
 166:Drivers/STM32G4xx_HAL_Driver/Src/stm32g4xx_hal_comp.c ****   * @brief COMP HAL module driver
 167:Drivers/STM32G4xx_HAL_Driver/Src/stm32g4xx_hal_comp.c ****   * @{
 168:Drivers/STM32G4xx_HAL_Driver/Src/stm32g4xx_hal_comp.c ****   */
 169:Drivers/STM32G4xx_HAL_Driver/Src/stm32g4xx_hal_comp.c **** 
 170:Drivers/STM32G4xx_HAL_Driver/Src/stm32g4xx_hal_comp.c **** /* Private typedef -----------------------------------------------------------*/
 171:Drivers/STM32G4xx_HAL_Driver/Src/stm32g4xx_hal_comp.c **** /* Private define ------------------------------------------------------------*/
 172:Drivers/STM32G4xx_HAL_Driver/Src/stm32g4xx_hal_comp.c **** /** @addtogroup COMP_Private_Constants
 173:Drivers/STM32G4xx_HAL_Driver/Src/stm32g4xx_hal_comp.c ****   * @{
 174:Drivers/STM32G4xx_HAL_Driver/Src/stm32g4xx_hal_comp.c ****   */
 175:Drivers/STM32G4xx_HAL_Driver/Src/stm32g4xx_hal_comp.c **** 
 176:Drivers/STM32G4xx_HAL_Driver/Src/stm32g4xx_hal_comp.c **** /* Delay for COMP startup time.                                               */
 177:Drivers/STM32G4xx_HAL_Driver/Src/stm32g4xx_hal_comp.c **** /* Note: Delay required to reach propagation delay specification.             */
 178:Drivers/STM32G4xx_HAL_Driver/Src/stm32g4xx_hal_comp.c **** /* Literal set to maximum value (refer to device datasheet,                   */
 179:Drivers/STM32G4xx_HAL_Driver/Src/stm32g4xx_hal_comp.c **** /* parameter "tSTART").                                                       */
 180:Drivers/STM32G4xx_HAL_Driver/Src/stm32g4xx_hal_comp.c **** /* Unit: us                                                                   */
 181:Drivers/STM32G4xx_HAL_Driver/Src/stm32g4xx_hal_comp.c **** #define COMP_DELAY_STARTUP_US           (5UL) /*!< Delay for COMP startup time */
 182:Drivers/STM32G4xx_HAL_Driver/Src/stm32g4xx_hal_comp.c **** 
 183:Drivers/STM32G4xx_HAL_Driver/Src/stm32g4xx_hal_comp.c **** /* Delay for COMP voltage scaler stabilization time.                          */
 184:Drivers/STM32G4xx_HAL_Driver/Src/stm32g4xx_hal_comp.c **** /* Literal set to maximum value (refer to device datasheet,                   */
 185:Drivers/STM32G4xx_HAL_Driver/Src/stm32g4xx_hal_comp.c **** /* parameter "tSTART_SCALER").                                                */
 186:Drivers/STM32G4xx_HAL_Driver/Src/stm32g4xx_hal_comp.c **** /* Unit: us                                                                   */
 187:Drivers/STM32G4xx_HAL_Driver/Src/stm32g4xx_hal_comp.c **** #define COMP_DELAY_VOLTAGE_SCALER_STAB_US (200UL)  /*!< Delay for COMP voltage scaler stabilization
 188:Drivers/STM32G4xx_HAL_Driver/Src/stm32g4xx_hal_comp.c **** 
 189:Drivers/STM32G4xx_HAL_Driver/Src/stm32g4xx_hal_comp.c **** #define COMP_OUTPUT_LEVEL_BITOFFSET_POS    (30UL)
 190:Drivers/STM32G4xx_HAL_Driver/Src/stm32g4xx_hal_comp.c **** 
 191:Drivers/STM32G4xx_HAL_Driver/Src/stm32g4xx_hal_comp.c **** /**
 192:Drivers/STM32G4xx_HAL_Driver/Src/stm32g4xx_hal_comp.c ****   * @}
 193:Drivers/STM32G4xx_HAL_Driver/Src/stm32g4xx_hal_comp.c ****   */
 194:Drivers/STM32G4xx_HAL_Driver/Src/stm32g4xx_hal_comp.c **** 
 195:Drivers/STM32G4xx_HAL_Driver/Src/stm32g4xx_hal_comp.c **** /* Private macro -------------------------------------------------------------*/
 196:Drivers/STM32G4xx_HAL_Driver/Src/stm32g4xx_hal_comp.c **** /* Private variables ---------------------------------------------------------*/
 197:Drivers/STM32G4xx_HAL_Driver/Src/stm32g4xx_hal_comp.c **** /* Private function prototypes -----------------------------------------------*/
 198:Drivers/STM32G4xx_HAL_Driver/Src/stm32g4xx_hal_comp.c **** /* Exported functions --------------------------------------------------------*/
 199:Drivers/STM32G4xx_HAL_Driver/Src/stm32g4xx_hal_comp.c **** 
 200:Drivers/STM32G4xx_HAL_Driver/Src/stm32g4xx_hal_comp.c **** /** @defgroup COMP_Exported_Functions COMP Exported Functions
ARM GAS  C:\Users\T1\AppData\Local\Temp\cciVZ2by.s 			page 5


 201:Drivers/STM32G4xx_HAL_Driver/Src/stm32g4xx_hal_comp.c ****   * @{
 202:Drivers/STM32G4xx_HAL_Driver/Src/stm32g4xx_hal_comp.c ****   */
 203:Drivers/STM32G4xx_HAL_Driver/Src/stm32g4xx_hal_comp.c **** 
 204:Drivers/STM32G4xx_HAL_Driver/Src/stm32g4xx_hal_comp.c **** /** @defgroup COMP_Exported_Functions_Group1 Initialization/de-initialization functions
 205:Drivers/STM32G4xx_HAL_Driver/Src/stm32g4xx_hal_comp.c ****   *  @brief    Initialization and de-initialization functions.
 206:Drivers/STM32G4xx_HAL_Driver/Src/stm32g4xx_hal_comp.c ****   *
 207:Drivers/STM32G4xx_HAL_Driver/Src/stm32g4xx_hal_comp.c **** @verbatim
 208:Drivers/STM32G4xx_HAL_Driver/Src/stm32g4xx_hal_comp.c ****  ===============================================================================
 209:Drivers/STM32G4xx_HAL_Driver/Src/stm32g4xx_hal_comp.c ****               ##### Initialization and de-initialization functions #####
 210:Drivers/STM32G4xx_HAL_Driver/Src/stm32g4xx_hal_comp.c ****  ===============================================================================
 211:Drivers/STM32G4xx_HAL_Driver/Src/stm32g4xx_hal_comp.c ****     [..]  This section provides functions to initialize and de-initialize comparators
 212:Drivers/STM32G4xx_HAL_Driver/Src/stm32g4xx_hal_comp.c **** 
 213:Drivers/STM32G4xx_HAL_Driver/Src/stm32g4xx_hal_comp.c **** @endverbatim
 214:Drivers/STM32G4xx_HAL_Driver/Src/stm32g4xx_hal_comp.c ****   * @{
 215:Drivers/STM32G4xx_HAL_Driver/Src/stm32g4xx_hal_comp.c ****   */
 216:Drivers/STM32G4xx_HAL_Driver/Src/stm32g4xx_hal_comp.c **** 
 217:Drivers/STM32G4xx_HAL_Driver/Src/stm32g4xx_hal_comp.c **** /**
 218:Drivers/STM32G4xx_HAL_Driver/Src/stm32g4xx_hal_comp.c ****   * @brief  Initialize the COMP according to the specified
 219:Drivers/STM32G4xx_HAL_Driver/Src/stm32g4xx_hal_comp.c ****   *         parameters in the COMP_InitTypeDef and initialize the associated handle.
 220:Drivers/STM32G4xx_HAL_Driver/Src/stm32g4xx_hal_comp.c ****   * @note   If the selected comparator is locked, initialization can't be performed.
 221:Drivers/STM32G4xx_HAL_Driver/Src/stm32g4xx_hal_comp.c ****   *         To unlock the configuration, perform a system reset.
 222:Drivers/STM32G4xx_HAL_Driver/Src/stm32g4xx_hal_comp.c ****   * @param  hcomp  COMP handle
 223:Drivers/STM32G4xx_HAL_Driver/Src/stm32g4xx_hal_comp.c ****   * @retval HAL status
 224:Drivers/STM32G4xx_HAL_Driver/Src/stm32g4xx_hal_comp.c ****   */
 225:Drivers/STM32G4xx_HAL_Driver/Src/stm32g4xx_hal_comp.c **** HAL_StatusTypeDef HAL_COMP_Init(COMP_HandleTypeDef *hcomp)
 226:Drivers/STM32G4xx_HAL_Driver/Src/stm32g4xx_hal_comp.c **** {
 227:Drivers/STM32G4xx_HAL_Driver/Src/stm32g4xx_hal_comp.c ****   uint32_t tmp_csr;
 228:Drivers/STM32G4xx_HAL_Driver/Src/stm32g4xx_hal_comp.c ****   uint32_t exti_line;
 229:Drivers/STM32G4xx_HAL_Driver/Src/stm32g4xx_hal_comp.c ****   uint32_t comp_voltage_scaler_initialized; /* Value "0" if comparator voltage scaler is not initia
 230:Drivers/STM32G4xx_HAL_Driver/Src/stm32g4xx_hal_comp.c ****   __IO uint32_t wait_loop_index = 0UL;
 231:Drivers/STM32G4xx_HAL_Driver/Src/stm32g4xx_hal_comp.c ****   HAL_StatusTypeDef status = HAL_OK;
 232:Drivers/STM32G4xx_HAL_Driver/Src/stm32g4xx_hal_comp.c **** 
 233:Drivers/STM32G4xx_HAL_Driver/Src/stm32g4xx_hal_comp.c ****   /* Check the COMP handle allocation and lock status */
 234:Drivers/STM32G4xx_HAL_Driver/Src/stm32g4xx_hal_comp.c ****   if(hcomp == NULL)
 235:Drivers/STM32G4xx_HAL_Driver/Src/stm32g4xx_hal_comp.c ****   {
 236:Drivers/STM32G4xx_HAL_Driver/Src/stm32g4xx_hal_comp.c ****     status = HAL_ERROR;
 237:Drivers/STM32G4xx_HAL_Driver/Src/stm32g4xx_hal_comp.c ****   }
 238:Drivers/STM32G4xx_HAL_Driver/Src/stm32g4xx_hal_comp.c ****   else if(__HAL_COMP_IS_LOCKED(hcomp))
 239:Drivers/STM32G4xx_HAL_Driver/Src/stm32g4xx_hal_comp.c ****   {
 240:Drivers/STM32G4xx_HAL_Driver/Src/stm32g4xx_hal_comp.c ****     status = HAL_ERROR;
 241:Drivers/STM32G4xx_HAL_Driver/Src/stm32g4xx_hal_comp.c ****   }
 242:Drivers/STM32G4xx_HAL_Driver/Src/stm32g4xx_hal_comp.c ****   else
 243:Drivers/STM32G4xx_HAL_Driver/Src/stm32g4xx_hal_comp.c ****   {
 244:Drivers/STM32G4xx_HAL_Driver/Src/stm32g4xx_hal_comp.c ****     /* Check the parameters */
 245:Drivers/STM32G4xx_HAL_Driver/Src/stm32g4xx_hal_comp.c ****     assert_param(IS_COMP_ALL_INSTANCE(hcomp->Instance));
 246:Drivers/STM32G4xx_HAL_Driver/Src/stm32g4xx_hal_comp.c ****     assert_param(IS_COMP_INPUT_PLUS(hcomp->Instance, hcomp->Init.InputPlus));
 247:Drivers/STM32G4xx_HAL_Driver/Src/stm32g4xx_hal_comp.c ****     assert_param(IS_COMP_INPUT_MINUS(hcomp->Instance, hcomp->Init.InputMinus));
 248:Drivers/STM32G4xx_HAL_Driver/Src/stm32g4xx_hal_comp.c ****     assert_param(IS_COMP_OUTPUTPOL(hcomp->Init.OutputPol));
 249:Drivers/STM32G4xx_HAL_Driver/Src/stm32g4xx_hal_comp.c ****     assert_param(IS_COMP_HYSTERESIS(hcomp->Init.Hysteresis));
 250:Drivers/STM32G4xx_HAL_Driver/Src/stm32g4xx_hal_comp.c ****     assert_param(IS_COMP_BLANKINGSRC_INSTANCE(hcomp->Instance, hcomp->Init.BlankingSrce));
 251:Drivers/STM32G4xx_HAL_Driver/Src/stm32g4xx_hal_comp.c ****     assert_param(IS_COMP_TRIGGERMODE(hcomp->Init.TriggerMode));
 252:Drivers/STM32G4xx_HAL_Driver/Src/stm32g4xx_hal_comp.c **** 
 253:Drivers/STM32G4xx_HAL_Driver/Src/stm32g4xx_hal_comp.c ****     if(hcomp->State == HAL_COMP_STATE_RESET)
 254:Drivers/STM32G4xx_HAL_Driver/Src/stm32g4xx_hal_comp.c ****     {
 255:Drivers/STM32G4xx_HAL_Driver/Src/stm32g4xx_hal_comp.c ****       /* Allocate lock resource and initialize it */
 256:Drivers/STM32G4xx_HAL_Driver/Src/stm32g4xx_hal_comp.c ****       hcomp->Lock = HAL_UNLOCKED;
 257:Drivers/STM32G4xx_HAL_Driver/Src/stm32g4xx_hal_comp.c **** 
ARM GAS  C:\Users\T1\AppData\Local\Temp\cciVZ2by.s 			page 6


 258:Drivers/STM32G4xx_HAL_Driver/Src/stm32g4xx_hal_comp.c ****       /* Set COMP error code to none */
 259:Drivers/STM32G4xx_HAL_Driver/Src/stm32g4xx_hal_comp.c ****       COMP_CLEAR_ERRORCODE(hcomp);
 260:Drivers/STM32G4xx_HAL_Driver/Src/stm32g4xx_hal_comp.c **** 
 261:Drivers/STM32G4xx_HAL_Driver/Src/stm32g4xx_hal_comp.c **** 
 262:Drivers/STM32G4xx_HAL_Driver/Src/stm32g4xx_hal_comp.c **** #if (USE_HAL_COMP_REGISTER_CALLBACKS == 1)
 263:Drivers/STM32G4xx_HAL_Driver/Src/stm32g4xx_hal_comp.c ****       /* Init the COMP Callback settings */
 264:Drivers/STM32G4xx_HAL_Driver/Src/stm32g4xx_hal_comp.c ****       hcomp->TriggerCallback = HAL_COMP_TriggerCallback; /* Legacy weak callback */
 265:Drivers/STM32G4xx_HAL_Driver/Src/stm32g4xx_hal_comp.c **** 
 266:Drivers/STM32G4xx_HAL_Driver/Src/stm32g4xx_hal_comp.c ****       if (hcomp->MspInitCallback == NULL)
 267:Drivers/STM32G4xx_HAL_Driver/Src/stm32g4xx_hal_comp.c ****       {
 268:Drivers/STM32G4xx_HAL_Driver/Src/stm32g4xx_hal_comp.c ****         hcomp->MspInitCallback = HAL_COMP_MspInit; /* Legacy weak MspInit  */
 269:Drivers/STM32G4xx_HAL_Driver/Src/stm32g4xx_hal_comp.c ****       }
 270:Drivers/STM32G4xx_HAL_Driver/Src/stm32g4xx_hal_comp.c **** 
 271:Drivers/STM32G4xx_HAL_Driver/Src/stm32g4xx_hal_comp.c ****       /* Init the low level hardware */
 272:Drivers/STM32G4xx_HAL_Driver/Src/stm32g4xx_hal_comp.c ****       /* Note: Internal control clock of the comparators must                 */
 273:Drivers/STM32G4xx_HAL_Driver/Src/stm32g4xx_hal_comp.c ****       /*       be enabled in "HAL_COMP_MspInit()"                             */
 274:Drivers/STM32G4xx_HAL_Driver/Src/stm32g4xx_hal_comp.c ****       /*       using "__HAL_RCC_SYSCFG_CLK_ENABLE()".                         */
 275:Drivers/STM32G4xx_HAL_Driver/Src/stm32g4xx_hal_comp.c ****       hcomp->MspInitCallback(hcomp);
 276:Drivers/STM32G4xx_HAL_Driver/Src/stm32g4xx_hal_comp.c **** #else
 277:Drivers/STM32G4xx_HAL_Driver/Src/stm32g4xx_hal_comp.c ****       /* Init the low level hardware */
 278:Drivers/STM32G4xx_HAL_Driver/Src/stm32g4xx_hal_comp.c ****       /* Note: Internal control clock of the comparators must                 */
 279:Drivers/STM32G4xx_HAL_Driver/Src/stm32g4xx_hal_comp.c ****       /*       be enabled in "HAL_COMP_MspInit()"                             */
 280:Drivers/STM32G4xx_HAL_Driver/Src/stm32g4xx_hal_comp.c ****       /*       using "__HAL_RCC_SYSCFG_CLK_ENABLE()".                         */
 281:Drivers/STM32G4xx_HAL_Driver/Src/stm32g4xx_hal_comp.c ****       HAL_COMP_MspInit(hcomp);
 282:Drivers/STM32G4xx_HAL_Driver/Src/stm32g4xx_hal_comp.c **** #endif /* USE_HAL_COMP_REGISTER_CALLBACKS */
 283:Drivers/STM32G4xx_HAL_Driver/Src/stm32g4xx_hal_comp.c ****     }
 284:Drivers/STM32G4xx_HAL_Driver/Src/stm32g4xx_hal_comp.c **** 
 285:Drivers/STM32G4xx_HAL_Driver/Src/stm32g4xx_hal_comp.c ****     /* Memorize voltage scaler state before initialization */
 286:Drivers/STM32G4xx_HAL_Driver/Src/stm32g4xx_hal_comp.c ****     comp_voltage_scaler_initialized = READ_BIT(hcomp->Instance->CSR, COMP_CSR_SCALEN);
 287:Drivers/STM32G4xx_HAL_Driver/Src/stm32g4xx_hal_comp.c **** 
 288:Drivers/STM32G4xx_HAL_Driver/Src/stm32g4xx_hal_comp.c ****     /* Set COMP parameters */
 289:Drivers/STM32G4xx_HAL_Driver/Src/stm32g4xx_hal_comp.c ****     tmp_csr = (  hcomp->Init.InputMinus
 290:Drivers/STM32G4xx_HAL_Driver/Src/stm32g4xx_hal_comp.c ****                | hcomp->Init.InputPlus
 291:Drivers/STM32G4xx_HAL_Driver/Src/stm32g4xx_hal_comp.c ****                | hcomp->Init.BlankingSrce
 292:Drivers/STM32G4xx_HAL_Driver/Src/stm32g4xx_hal_comp.c ****                | hcomp->Init.Hysteresis
 293:Drivers/STM32G4xx_HAL_Driver/Src/stm32g4xx_hal_comp.c ****                | hcomp->Init.OutputPol
 294:Drivers/STM32G4xx_HAL_Driver/Src/stm32g4xx_hal_comp.c ****               );
 295:Drivers/STM32G4xx_HAL_Driver/Src/stm32g4xx_hal_comp.c **** 
 296:Drivers/STM32G4xx_HAL_Driver/Src/stm32g4xx_hal_comp.c ****     /* Set parameters in COMP register */
 297:Drivers/STM32G4xx_HAL_Driver/Src/stm32g4xx_hal_comp.c ****     /* Note: Update all bits except read-only, lock and enable bits */
 298:Drivers/STM32G4xx_HAL_Driver/Src/stm32g4xx_hal_comp.c ****     MODIFY_REG(hcomp->Instance->CSR,
 299:Drivers/STM32G4xx_HAL_Driver/Src/stm32g4xx_hal_comp.c ****                COMP_CSR_INMSEL   | COMP_CSR_INPSEL |
 300:Drivers/STM32G4xx_HAL_Driver/Src/stm32g4xx_hal_comp.c ****                COMP_CSR_POLARITY | COMP_CSR_HYST   |
 301:Drivers/STM32G4xx_HAL_Driver/Src/stm32g4xx_hal_comp.c ****                COMP_CSR_BLANKING | COMP_CSR_BRGEN  | COMP_CSR_SCALEN,
 302:Drivers/STM32G4xx_HAL_Driver/Src/stm32g4xx_hal_comp.c ****                tmp_csr
 303:Drivers/STM32G4xx_HAL_Driver/Src/stm32g4xx_hal_comp.c ****               );
 304:Drivers/STM32G4xx_HAL_Driver/Src/stm32g4xx_hal_comp.c **** 
 305:Drivers/STM32G4xx_HAL_Driver/Src/stm32g4xx_hal_comp.c ****     /* Delay for COMP scaler bridge voltage stabilization */
 306:Drivers/STM32G4xx_HAL_Driver/Src/stm32g4xx_hal_comp.c ****     /* Apply the delay if voltage scaler bridge is required and not already enabled */
 307:Drivers/STM32G4xx_HAL_Driver/Src/stm32g4xx_hal_comp.c ****     if ((READ_BIT(hcomp->Instance->CSR, COMP_CSR_SCALEN) != 0UL) &&
 308:Drivers/STM32G4xx_HAL_Driver/Src/stm32g4xx_hal_comp.c ****         (comp_voltage_scaler_initialized == 0UL)               )
 309:Drivers/STM32G4xx_HAL_Driver/Src/stm32g4xx_hal_comp.c ****     {
 310:Drivers/STM32G4xx_HAL_Driver/Src/stm32g4xx_hal_comp.c ****       /* Wait loop initialization and execution */
 311:Drivers/STM32G4xx_HAL_Driver/Src/stm32g4xx_hal_comp.c ****       /* Note: Variable divided by 2 to compensate partially              */
 312:Drivers/STM32G4xx_HAL_Driver/Src/stm32g4xx_hal_comp.c ****       /*       CPU processing cycles, scaling in us split to not          */
 313:Drivers/STM32G4xx_HAL_Driver/Src/stm32g4xx_hal_comp.c ****       /*       exceed 32 bits register capacity and handle low frequency. */
 314:Drivers/STM32G4xx_HAL_Driver/Src/stm32g4xx_hal_comp.c ****       wait_loop_index = ((COMP_DELAY_VOLTAGE_SCALER_STAB_US / 10UL) * ((SystemCoreClock / (100000UL
ARM GAS  C:\Users\T1\AppData\Local\Temp\cciVZ2by.s 			page 7


 315:Drivers/STM32G4xx_HAL_Driver/Src/stm32g4xx_hal_comp.c ****       while(wait_loop_index != 0UL)
 316:Drivers/STM32G4xx_HAL_Driver/Src/stm32g4xx_hal_comp.c ****       {
 317:Drivers/STM32G4xx_HAL_Driver/Src/stm32g4xx_hal_comp.c ****         wait_loop_index--;
 318:Drivers/STM32G4xx_HAL_Driver/Src/stm32g4xx_hal_comp.c ****       }
 319:Drivers/STM32G4xx_HAL_Driver/Src/stm32g4xx_hal_comp.c ****     }
 320:Drivers/STM32G4xx_HAL_Driver/Src/stm32g4xx_hal_comp.c **** 
 321:Drivers/STM32G4xx_HAL_Driver/Src/stm32g4xx_hal_comp.c ****     /* Get the EXTI line corresponding to the selected COMP instance */
 322:Drivers/STM32G4xx_HAL_Driver/Src/stm32g4xx_hal_comp.c ****     exti_line = COMP_GET_EXTI_LINE(hcomp->Instance);
 323:Drivers/STM32G4xx_HAL_Driver/Src/stm32g4xx_hal_comp.c **** 
 324:Drivers/STM32G4xx_HAL_Driver/Src/stm32g4xx_hal_comp.c ****     /* Manage EXTI settings */
 325:Drivers/STM32G4xx_HAL_Driver/Src/stm32g4xx_hal_comp.c ****     if((hcomp->Init.TriggerMode & (COMP_EXTI_IT | COMP_EXTI_EVENT)) != 0UL)
 326:Drivers/STM32G4xx_HAL_Driver/Src/stm32g4xx_hal_comp.c ****     {
 327:Drivers/STM32G4xx_HAL_Driver/Src/stm32g4xx_hal_comp.c ****       /* Configure EXTI rising edge */
 328:Drivers/STM32G4xx_HAL_Driver/Src/stm32g4xx_hal_comp.c ****       if((hcomp->Init.TriggerMode & COMP_EXTI_RISING) != 0UL)
 329:Drivers/STM32G4xx_HAL_Driver/Src/stm32g4xx_hal_comp.c ****       {
 330:Drivers/STM32G4xx_HAL_Driver/Src/stm32g4xx_hal_comp.c **** #if defined(COMP7)
 331:Drivers/STM32G4xx_HAL_Driver/Src/stm32g4xx_hal_comp.c ****         if((hcomp->Instance == COMP6) || (hcomp->Instance == COMP7))
 332:Drivers/STM32G4xx_HAL_Driver/Src/stm32g4xx_hal_comp.c ****         {
 333:Drivers/STM32G4xx_HAL_Driver/Src/stm32g4xx_hal_comp.c ****           LL_EXTI_EnableRisingTrig_32_63(exti_line);
 334:Drivers/STM32G4xx_HAL_Driver/Src/stm32g4xx_hal_comp.c ****         }
 335:Drivers/STM32G4xx_HAL_Driver/Src/stm32g4xx_hal_comp.c ****         else
 336:Drivers/STM32G4xx_HAL_Driver/Src/stm32g4xx_hal_comp.c ****         {
 337:Drivers/STM32G4xx_HAL_Driver/Src/stm32g4xx_hal_comp.c ****           LL_EXTI_EnableRisingTrig_0_31(exti_line);
 338:Drivers/STM32G4xx_HAL_Driver/Src/stm32g4xx_hal_comp.c ****         }
 339:Drivers/STM32G4xx_HAL_Driver/Src/stm32g4xx_hal_comp.c **** #else
 340:Drivers/STM32G4xx_HAL_Driver/Src/stm32g4xx_hal_comp.c ****         LL_EXTI_EnableRisingTrig_0_31(exti_line);
 341:Drivers/STM32G4xx_HAL_Driver/Src/stm32g4xx_hal_comp.c **** #endif /* COMP7 */
 342:Drivers/STM32G4xx_HAL_Driver/Src/stm32g4xx_hal_comp.c ****       }
 343:Drivers/STM32G4xx_HAL_Driver/Src/stm32g4xx_hal_comp.c ****       else
 344:Drivers/STM32G4xx_HAL_Driver/Src/stm32g4xx_hal_comp.c ****       {
 345:Drivers/STM32G4xx_HAL_Driver/Src/stm32g4xx_hal_comp.c **** #if defined(COMP7)
 346:Drivers/STM32G4xx_HAL_Driver/Src/stm32g4xx_hal_comp.c ****         if((hcomp->Instance == COMP6) || (hcomp->Instance == COMP7))
 347:Drivers/STM32G4xx_HAL_Driver/Src/stm32g4xx_hal_comp.c ****         {
 348:Drivers/STM32G4xx_HAL_Driver/Src/stm32g4xx_hal_comp.c ****           LL_EXTI_DisableRisingTrig_32_63(exti_line);
 349:Drivers/STM32G4xx_HAL_Driver/Src/stm32g4xx_hal_comp.c ****         }
 350:Drivers/STM32G4xx_HAL_Driver/Src/stm32g4xx_hal_comp.c ****         else
 351:Drivers/STM32G4xx_HAL_Driver/Src/stm32g4xx_hal_comp.c ****         {
 352:Drivers/STM32G4xx_HAL_Driver/Src/stm32g4xx_hal_comp.c ****           LL_EXTI_DisableRisingTrig_0_31(exti_line);
 353:Drivers/STM32G4xx_HAL_Driver/Src/stm32g4xx_hal_comp.c ****         }
 354:Drivers/STM32G4xx_HAL_Driver/Src/stm32g4xx_hal_comp.c **** #else
 355:Drivers/STM32G4xx_HAL_Driver/Src/stm32g4xx_hal_comp.c ****         LL_EXTI_DisableRisingTrig_0_31(exti_line);
 356:Drivers/STM32G4xx_HAL_Driver/Src/stm32g4xx_hal_comp.c **** #endif /* COMP7 */
 357:Drivers/STM32G4xx_HAL_Driver/Src/stm32g4xx_hal_comp.c ****       }
 358:Drivers/STM32G4xx_HAL_Driver/Src/stm32g4xx_hal_comp.c **** 
 359:Drivers/STM32G4xx_HAL_Driver/Src/stm32g4xx_hal_comp.c ****       /* Configure EXTI falling edge */
 360:Drivers/STM32G4xx_HAL_Driver/Src/stm32g4xx_hal_comp.c ****       if((hcomp->Init.TriggerMode & COMP_EXTI_FALLING) != 0UL)
 361:Drivers/STM32G4xx_HAL_Driver/Src/stm32g4xx_hal_comp.c ****       {
 362:Drivers/STM32G4xx_HAL_Driver/Src/stm32g4xx_hal_comp.c **** #if defined(COMP7)
 363:Drivers/STM32G4xx_HAL_Driver/Src/stm32g4xx_hal_comp.c ****         if((hcomp->Instance == COMP6) || (hcomp->Instance == COMP7))
 364:Drivers/STM32G4xx_HAL_Driver/Src/stm32g4xx_hal_comp.c ****         {
 365:Drivers/STM32G4xx_HAL_Driver/Src/stm32g4xx_hal_comp.c ****           LL_EXTI_EnableFallingTrig_32_63(exti_line);
 366:Drivers/STM32G4xx_HAL_Driver/Src/stm32g4xx_hal_comp.c ****         }
 367:Drivers/STM32G4xx_HAL_Driver/Src/stm32g4xx_hal_comp.c ****         else
 368:Drivers/STM32G4xx_HAL_Driver/Src/stm32g4xx_hal_comp.c ****         {
 369:Drivers/STM32G4xx_HAL_Driver/Src/stm32g4xx_hal_comp.c ****           LL_EXTI_EnableFallingTrig_0_31(exti_line);
 370:Drivers/STM32G4xx_HAL_Driver/Src/stm32g4xx_hal_comp.c ****         }
 371:Drivers/STM32G4xx_HAL_Driver/Src/stm32g4xx_hal_comp.c **** #else
ARM GAS  C:\Users\T1\AppData\Local\Temp\cciVZ2by.s 			page 8


 372:Drivers/STM32G4xx_HAL_Driver/Src/stm32g4xx_hal_comp.c ****         LL_EXTI_EnableFallingTrig_0_31(exti_line);
 373:Drivers/STM32G4xx_HAL_Driver/Src/stm32g4xx_hal_comp.c **** #endif /* COMP7 */
 374:Drivers/STM32G4xx_HAL_Driver/Src/stm32g4xx_hal_comp.c ****       }
 375:Drivers/STM32G4xx_HAL_Driver/Src/stm32g4xx_hal_comp.c ****       else
 376:Drivers/STM32G4xx_HAL_Driver/Src/stm32g4xx_hal_comp.c ****       {
 377:Drivers/STM32G4xx_HAL_Driver/Src/stm32g4xx_hal_comp.c **** #if defined(COMP7)
 378:Drivers/STM32G4xx_HAL_Driver/Src/stm32g4xx_hal_comp.c ****         if((hcomp->Instance == COMP6) || (hcomp->Instance == COMP7))
 379:Drivers/STM32G4xx_HAL_Driver/Src/stm32g4xx_hal_comp.c ****         {
 380:Drivers/STM32G4xx_HAL_Driver/Src/stm32g4xx_hal_comp.c ****           LL_EXTI_DisableFallingTrig_32_63(exti_line);
 381:Drivers/STM32G4xx_HAL_Driver/Src/stm32g4xx_hal_comp.c ****         }
 382:Drivers/STM32G4xx_HAL_Driver/Src/stm32g4xx_hal_comp.c ****         else
 383:Drivers/STM32G4xx_HAL_Driver/Src/stm32g4xx_hal_comp.c ****         {
 384:Drivers/STM32G4xx_HAL_Driver/Src/stm32g4xx_hal_comp.c ****           LL_EXTI_DisableFallingTrig_0_31(exti_line);
 385:Drivers/STM32G4xx_HAL_Driver/Src/stm32g4xx_hal_comp.c ****         }
 386:Drivers/STM32G4xx_HAL_Driver/Src/stm32g4xx_hal_comp.c **** #else
 387:Drivers/STM32G4xx_HAL_Driver/Src/stm32g4xx_hal_comp.c ****         LL_EXTI_DisableFallingTrig_0_31(exti_line);
 388:Drivers/STM32G4xx_HAL_Driver/Src/stm32g4xx_hal_comp.c **** #endif /* COMP7 */
 389:Drivers/STM32G4xx_HAL_Driver/Src/stm32g4xx_hal_comp.c ****       }
 390:Drivers/STM32G4xx_HAL_Driver/Src/stm32g4xx_hal_comp.c **** 
 391:Drivers/STM32G4xx_HAL_Driver/Src/stm32g4xx_hal_comp.c ****       /* Clear COMP EXTI pending bit (if any) */
 392:Drivers/STM32G4xx_HAL_Driver/Src/stm32g4xx_hal_comp.c **** #if defined(COMP7)
 393:Drivers/STM32G4xx_HAL_Driver/Src/stm32g4xx_hal_comp.c ****       if((hcomp->Instance == COMP6) || (hcomp->Instance == COMP7))
 394:Drivers/STM32G4xx_HAL_Driver/Src/stm32g4xx_hal_comp.c ****       {
 395:Drivers/STM32G4xx_HAL_Driver/Src/stm32g4xx_hal_comp.c ****         LL_EXTI_ClearFlag_32_63(exti_line);
 396:Drivers/STM32G4xx_HAL_Driver/Src/stm32g4xx_hal_comp.c ****       }
 397:Drivers/STM32G4xx_HAL_Driver/Src/stm32g4xx_hal_comp.c ****       else
 398:Drivers/STM32G4xx_HAL_Driver/Src/stm32g4xx_hal_comp.c ****       {
 399:Drivers/STM32G4xx_HAL_Driver/Src/stm32g4xx_hal_comp.c ****         LL_EXTI_ClearFlag_0_31(exti_line);
 400:Drivers/STM32G4xx_HAL_Driver/Src/stm32g4xx_hal_comp.c ****       }
 401:Drivers/STM32G4xx_HAL_Driver/Src/stm32g4xx_hal_comp.c **** #else
 402:Drivers/STM32G4xx_HAL_Driver/Src/stm32g4xx_hal_comp.c ****       LL_EXTI_ClearFlag_0_31(exti_line);
 403:Drivers/STM32G4xx_HAL_Driver/Src/stm32g4xx_hal_comp.c **** #endif /* COMP7 */
 404:Drivers/STM32G4xx_HAL_Driver/Src/stm32g4xx_hal_comp.c **** 
 405:Drivers/STM32G4xx_HAL_Driver/Src/stm32g4xx_hal_comp.c ****       /* Configure EXTI event mode */
 406:Drivers/STM32G4xx_HAL_Driver/Src/stm32g4xx_hal_comp.c ****       if((hcomp->Init.TriggerMode & COMP_EXTI_EVENT) != 0UL)
 407:Drivers/STM32G4xx_HAL_Driver/Src/stm32g4xx_hal_comp.c ****       {
 408:Drivers/STM32G4xx_HAL_Driver/Src/stm32g4xx_hal_comp.c **** #if defined(COMP7)
 409:Drivers/STM32G4xx_HAL_Driver/Src/stm32g4xx_hal_comp.c ****         if((hcomp->Instance == COMP6) || (hcomp->Instance == COMP7))
 410:Drivers/STM32G4xx_HAL_Driver/Src/stm32g4xx_hal_comp.c ****         {
 411:Drivers/STM32G4xx_HAL_Driver/Src/stm32g4xx_hal_comp.c ****           LL_EXTI_EnableEvent_32_63(exti_line);
 412:Drivers/STM32G4xx_HAL_Driver/Src/stm32g4xx_hal_comp.c ****         }
 413:Drivers/STM32G4xx_HAL_Driver/Src/stm32g4xx_hal_comp.c ****         else
 414:Drivers/STM32G4xx_HAL_Driver/Src/stm32g4xx_hal_comp.c ****         {
 415:Drivers/STM32G4xx_HAL_Driver/Src/stm32g4xx_hal_comp.c ****           LL_EXTI_EnableEvent_0_31(exti_line);
 416:Drivers/STM32G4xx_HAL_Driver/Src/stm32g4xx_hal_comp.c ****         }
 417:Drivers/STM32G4xx_HAL_Driver/Src/stm32g4xx_hal_comp.c **** #else
 418:Drivers/STM32G4xx_HAL_Driver/Src/stm32g4xx_hal_comp.c ****         LL_EXTI_EnableEvent_0_31(exti_line);
 419:Drivers/STM32G4xx_HAL_Driver/Src/stm32g4xx_hal_comp.c **** #endif /* COMP7 */
 420:Drivers/STM32G4xx_HAL_Driver/Src/stm32g4xx_hal_comp.c ****       }
 421:Drivers/STM32G4xx_HAL_Driver/Src/stm32g4xx_hal_comp.c ****       else
 422:Drivers/STM32G4xx_HAL_Driver/Src/stm32g4xx_hal_comp.c ****       {
 423:Drivers/STM32G4xx_HAL_Driver/Src/stm32g4xx_hal_comp.c **** #if defined(COMP7)
 424:Drivers/STM32G4xx_HAL_Driver/Src/stm32g4xx_hal_comp.c ****         if((hcomp->Instance == COMP6) || (hcomp->Instance == COMP7))
 425:Drivers/STM32G4xx_HAL_Driver/Src/stm32g4xx_hal_comp.c ****         {
 426:Drivers/STM32G4xx_HAL_Driver/Src/stm32g4xx_hal_comp.c ****           LL_EXTI_DisableEvent_32_63(exti_line);
 427:Drivers/STM32G4xx_HAL_Driver/Src/stm32g4xx_hal_comp.c ****         }
 428:Drivers/STM32G4xx_HAL_Driver/Src/stm32g4xx_hal_comp.c ****         else
ARM GAS  C:\Users\T1\AppData\Local\Temp\cciVZ2by.s 			page 9


 429:Drivers/STM32G4xx_HAL_Driver/Src/stm32g4xx_hal_comp.c ****         {
 430:Drivers/STM32G4xx_HAL_Driver/Src/stm32g4xx_hal_comp.c ****           LL_EXTI_DisableEvent_0_31(exti_line);
 431:Drivers/STM32G4xx_HAL_Driver/Src/stm32g4xx_hal_comp.c ****         }
 432:Drivers/STM32G4xx_HAL_Driver/Src/stm32g4xx_hal_comp.c **** #else
 433:Drivers/STM32G4xx_HAL_Driver/Src/stm32g4xx_hal_comp.c ****         LL_EXTI_DisableEvent_0_31(exti_line);
 434:Drivers/STM32G4xx_HAL_Driver/Src/stm32g4xx_hal_comp.c **** #endif /* COMP7 */
 435:Drivers/STM32G4xx_HAL_Driver/Src/stm32g4xx_hal_comp.c ****       }
 436:Drivers/STM32G4xx_HAL_Driver/Src/stm32g4xx_hal_comp.c **** 
 437:Drivers/STM32G4xx_HAL_Driver/Src/stm32g4xx_hal_comp.c ****       /* Configure EXTI interrupt mode */
 438:Drivers/STM32G4xx_HAL_Driver/Src/stm32g4xx_hal_comp.c ****       if((hcomp->Init.TriggerMode & COMP_EXTI_IT) != 0UL)
 439:Drivers/STM32G4xx_HAL_Driver/Src/stm32g4xx_hal_comp.c ****       {
 440:Drivers/STM32G4xx_HAL_Driver/Src/stm32g4xx_hal_comp.c **** #if defined(COMP7)
 441:Drivers/STM32G4xx_HAL_Driver/Src/stm32g4xx_hal_comp.c ****         if((hcomp->Instance == COMP6) || (hcomp->Instance == COMP7))
 442:Drivers/STM32G4xx_HAL_Driver/Src/stm32g4xx_hal_comp.c ****         {
 443:Drivers/STM32G4xx_HAL_Driver/Src/stm32g4xx_hal_comp.c ****           LL_EXTI_EnableIT_32_63(exti_line);
 444:Drivers/STM32G4xx_HAL_Driver/Src/stm32g4xx_hal_comp.c ****         }
 445:Drivers/STM32G4xx_HAL_Driver/Src/stm32g4xx_hal_comp.c ****         else
 446:Drivers/STM32G4xx_HAL_Driver/Src/stm32g4xx_hal_comp.c ****         {
 447:Drivers/STM32G4xx_HAL_Driver/Src/stm32g4xx_hal_comp.c ****           LL_EXTI_EnableIT_0_31(exti_line);
 448:Drivers/STM32G4xx_HAL_Driver/Src/stm32g4xx_hal_comp.c ****         }
 449:Drivers/STM32G4xx_HAL_Driver/Src/stm32g4xx_hal_comp.c **** #else
 450:Drivers/STM32G4xx_HAL_Driver/Src/stm32g4xx_hal_comp.c ****         LL_EXTI_EnableIT_0_31(exti_line);
 451:Drivers/STM32G4xx_HAL_Driver/Src/stm32g4xx_hal_comp.c **** #endif /* COMP7 */
 452:Drivers/STM32G4xx_HAL_Driver/Src/stm32g4xx_hal_comp.c ****       }
 453:Drivers/STM32G4xx_HAL_Driver/Src/stm32g4xx_hal_comp.c ****       else
 454:Drivers/STM32G4xx_HAL_Driver/Src/stm32g4xx_hal_comp.c ****       {
 455:Drivers/STM32G4xx_HAL_Driver/Src/stm32g4xx_hal_comp.c **** #if defined(COMP7)
 456:Drivers/STM32G4xx_HAL_Driver/Src/stm32g4xx_hal_comp.c ****         if((hcomp->Instance == COMP6) || (hcomp->Instance == COMP7))
 457:Drivers/STM32G4xx_HAL_Driver/Src/stm32g4xx_hal_comp.c ****         {
 458:Drivers/STM32G4xx_HAL_Driver/Src/stm32g4xx_hal_comp.c ****           LL_EXTI_DisableIT_32_63(exti_line);
 459:Drivers/STM32G4xx_HAL_Driver/Src/stm32g4xx_hal_comp.c ****         }
 460:Drivers/STM32G4xx_HAL_Driver/Src/stm32g4xx_hal_comp.c ****         else
 461:Drivers/STM32G4xx_HAL_Driver/Src/stm32g4xx_hal_comp.c ****         {
 462:Drivers/STM32G4xx_HAL_Driver/Src/stm32g4xx_hal_comp.c ****           LL_EXTI_DisableIT_0_31(exti_line);
 463:Drivers/STM32G4xx_HAL_Driver/Src/stm32g4xx_hal_comp.c ****         }
 464:Drivers/STM32G4xx_HAL_Driver/Src/stm32g4xx_hal_comp.c **** #else
 465:Drivers/STM32G4xx_HAL_Driver/Src/stm32g4xx_hal_comp.c ****         LL_EXTI_DisableIT_0_31(exti_line);
 466:Drivers/STM32G4xx_HAL_Driver/Src/stm32g4xx_hal_comp.c **** #endif /* COMP7 */
 467:Drivers/STM32G4xx_HAL_Driver/Src/stm32g4xx_hal_comp.c ****       }
 468:Drivers/STM32G4xx_HAL_Driver/Src/stm32g4xx_hal_comp.c ****     }
 469:Drivers/STM32G4xx_HAL_Driver/Src/stm32g4xx_hal_comp.c ****     else
 470:Drivers/STM32G4xx_HAL_Driver/Src/stm32g4xx_hal_comp.c ****     {
 471:Drivers/STM32G4xx_HAL_Driver/Src/stm32g4xx_hal_comp.c ****       /* Disable EXTI event mode */
 472:Drivers/STM32G4xx_HAL_Driver/Src/stm32g4xx_hal_comp.c **** #if defined(COMP7)
 473:Drivers/STM32G4xx_HAL_Driver/Src/stm32g4xx_hal_comp.c ****       if((hcomp->Instance == COMP6) || (hcomp->Instance == COMP7))
 474:Drivers/STM32G4xx_HAL_Driver/Src/stm32g4xx_hal_comp.c ****       {
 475:Drivers/STM32G4xx_HAL_Driver/Src/stm32g4xx_hal_comp.c ****         LL_EXTI_DisableEvent_32_63(exti_line);
 476:Drivers/STM32G4xx_HAL_Driver/Src/stm32g4xx_hal_comp.c ****       }
 477:Drivers/STM32G4xx_HAL_Driver/Src/stm32g4xx_hal_comp.c ****       else
 478:Drivers/STM32G4xx_HAL_Driver/Src/stm32g4xx_hal_comp.c ****       {
 479:Drivers/STM32G4xx_HAL_Driver/Src/stm32g4xx_hal_comp.c ****         LL_EXTI_DisableEvent_0_31(exti_line);
 480:Drivers/STM32G4xx_HAL_Driver/Src/stm32g4xx_hal_comp.c ****       }
 481:Drivers/STM32G4xx_HAL_Driver/Src/stm32g4xx_hal_comp.c **** #else
 482:Drivers/STM32G4xx_HAL_Driver/Src/stm32g4xx_hal_comp.c ****       LL_EXTI_DisableEvent_0_31(exti_line);
 483:Drivers/STM32G4xx_HAL_Driver/Src/stm32g4xx_hal_comp.c **** #endif /* COMP7 */
 484:Drivers/STM32G4xx_HAL_Driver/Src/stm32g4xx_hal_comp.c **** 
 485:Drivers/STM32G4xx_HAL_Driver/Src/stm32g4xx_hal_comp.c ****       /* Disable EXTI interrupt mode */
ARM GAS  C:\Users\T1\AppData\Local\Temp\cciVZ2by.s 			page 10


 486:Drivers/STM32G4xx_HAL_Driver/Src/stm32g4xx_hal_comp.c **** #if defined(COMP7)
 487:Drivers/STM32G4xx_HAL_Driver/Src/stm32g4xx_hal_comp.c ****       if((hcomp->Instance == COMP6) || (hcomp->Instance == COMP7))
 488:Drivers/STM32G4xx_HAL_Driver/Src/stm32g4xx_hal_comp.c ****       {
 489:Drivers/STM32G4xx_HAL_Driver/Src/stm32g4xx_hal_comp.c ****         LL_EXTI_DisableIT_32_63(exti_line);
 490:Drivers/STM32G4xx_HAL_Driver/Src/stm32g4xx_hal_comp.c ****       }
 491:Drivers/STM32G4xx_HAL_Driver/Src/stm32g4xx_hal_comp.c ****       else
 492:Drivers/STM32G4xx_HAL_Driver/Src/stm32g4xx_hal_comp.c ****       {
 493:Drivers/STM32G4xx_HAL_Driver/Src/stm32g4xx_hal_comp.c ****         LL_EXTI_DisableIT_0_31(exti_line);
 494:Drivers/STM32G4xx_HAL_Driver/Src/stm32g4xx_hal_comp.c ****       }
 495:Drivers/STM32G4xx_HAL_Driver/Src/stm32g4xx_hal_comp.c **** #else
 496:Drivers/STM32G4xx_HAL_Driver/Src/stm32g4xx_hal_comp.c ****       LL_EXTI_DisableIT_0_31(exti_line);
 497:Drivers/STM32G4xx_HAL_Driver/Src/stm32g4xx_hal_comp.c **** #endif /* COMP7 */
 498:Drivers/STM32G4xx_HAL_Driver/Src/stm32g4xx_hal_comp.c ****     }
 499:Drivers/STM32G4xx_HAL_Driver/Src/stm32g4xx_hal_comp.c **** 
 500:Drivers/STM32G4xx_HAL_Driver/Src/stm32g4xx_hal_comp.c ****     /* Set HAL COMP handle state */
 501:Drivers/STM32G4xx_HAL_Driver/Src/stm32g4xx_hal_comp.c ****     /* Note: Transition from state reset to state ready,                      */
 502:Drivers/STM32G4xx_HAL_Driver/Src/stm32g4xx_hal_comp.c ****     /*       otherwise (coming from state ready or busy) no state update.     */
 503:Drivers/STM32G4xx_HAL_Driver/Src/stm32g4xx_hal_comp.c ****     if (hcomp->State == HAL_COMP_STATE_RESET)
 504:Drivers/STM32G4xx_HAL_Driver/Src/stm32g4xx_hal_comp.c ****     {
 505:Drivers/STM32G4xx_HAL_Driver/Src/stm32g4xx_hal_comp.c ****       hcomp->State = HAL_COMP_STATE_READY;
 506:Drivers/STM32G4xx_HAL_Driver/Src/stm32g4xx_hal_comp.c ****     }
 507:Drivers/STM32G4xx_HAL_Driver/Src/stm32g4xx_hal_comp.c ****   }
 508:Drivers/STM32G4xx_HAL_Driver/Src/stm32g4xx_hal_comp.c **** 
 509:Drivers/STM32G4xx_HAL_Driver/Src/stm32g4xx_hal_comp.c ****   return status;
 510:Drivers/STM32G4xx_HAL_Driver/Src/stm32g4xx_hal_comp.c **** }
 511:Drivers/STM32G4xx_HAL_Driver/Src/stm32g4xx_hal_comp.c **** 
 512:Drivers/STM32G4xx_HAL_Driver/Src/stm32g4xx_hal_comp.c **** /**
 513:Drivers/STM32G4xx_HAL_Driver/Src/stm32g4xx_hal_comp.c ****   * @brief  DeInitialize the COMP peripheral.
 514:Drivers/STM32G4xx_HAL_Driver/Src/stm32g4xx_hal_comp.c ****   * @note   Deinitialization cannot be performed if the COMP configuration is locked.
 515:Drivers/STM32G4xx_HAL_Driver/Src/stm32g4xx_hal_comp.c ****   *         To unlock the configuration, perform a system reset.
 516:Drivers/STM32G4xx_HAL_Driver/Src/stm32g4xx_hal_comp.c ****   * @param  hcomp  COMP handle
 517:Drivers/STM32G4xx_HAL_Driver/Src/stm32g4xx_hal_comp.c ****   * @retval HAL status
 518:Drivers/STM32G4xx_HAL_Driver/Src/stm32g4xx_hal_comp.c ****   */
 519:Drivers/STM32G4xx_HAL_Driver/Src/stm32g4xx_hal_comp.c **** HAL_StatusTypeDef HAL_COMP_DeInit(COMP_HandleTypeDef *hcomp)
 520:Drivers/STM32G4xx_HAL_Driver/Src/stm32g4xx_hal_comp.c **** {
 521:Drivers/STM32G4xx_HAL_Driver/Src/stm32g4xx_hal_comp.c ****   HAL_StatusTypeDef status = HAL_OK;
 522:Drivers/STM32G4xx_HAL_Driver/Src/stm32g4xx_hal_comp.c **** 
 523:Drivers/STM32G4xx_HAL_Driver/Src/stm32g4xx_hal_comp.c ****   /* Check the COMP handle allocation and lock status */
 524:Drivers/STM32G4xx_HAL_Driver/Src/stm32g4xx_hal_comp.c ****   if(hcomp == NULL)
 525:Drivers/STM32G4xx_HAL_Driver/Src/stm32g4xx_hal_comp.c ****   {
 526:Drivers/STM32G4xx_HAL_Driver/Src/stm32g4xx_hal_comp.c ****     status = HAL_ERROR;
 527:Drivers/STM32G4xx_HAL_Driver/Src/stm32g4xx_hal_comp.c ****   }
 528:Drivers/STM32G4xx_HAL_Driver/Src/stm32g4xx_hal_comp.c ****   else if(__HAL_COMP_IS_LOCKED(hcomp))
 529:Drivers/STM32G4xx_HAL_Driver/Src/stm32g4xx_hal_comp.c ****   {
 530:Drivers/STM32G4xx_HAL_Driver/Src/stm32g4xx_hal_comp.c ****     status = HAL_ERROR;
 531:Drivers/STM32G4xx_HAL_Driver/Src/stm32g4xx_hal_comp.c ****   }
 532:Drivers/STM32G4xx_HAL_Driver/Src/stm32g4xx_hal_comp.c ****   else
 533:Drivers/STM32G4xx_HAL_Driver/Src/stm32g4xx_hal_comp.c ****   {
 534:Drivers/STM32G4xx_HAL_Driver/Src/stm32g4xx_hal_comp.c ****     /* Check the parameter */
 535:Drivers/STM32G4xx_HAL_Driver/Src/stm32g4xx_hal_comp.c ****     assert_param(IS_COMP_ALL_INSTANCE(hcomp->Instance));
 536:Drivers/STM32G4xx_HAL_Driver/Src/stm32g4xx_hal_comp.c **** 
 537:Drivers/STM32G4xx_HAL_Driver/Src/stm32g4xx_hal_comp.c ****     /* Set COMP_CSR register to reset value */
 538:Drivers/STM32G4xx_HAL_Driver/Src/stm32g4xx_hal_comp.c ****     WRITE_REG(hcomp->Instance->CSR, 0x00000000UL);
 539:Drivers/STM32G4xx_HAL_Driver/Src/stm32g4xx_hal_comp.c **** 
 540:Drivers/STM32G4xx_HAL_Driver/Src/stm32g4xx_hal_comp.c **** #if (USE_HAL_COMP_REGISTER_CALLBACKS == 1)
 541:Drivers/STM32G4xx_HAL_Driver/Src/stm32g4xx_hal_comp.c ****     if (hcomp->MspDeInitCallback == NULL)
 542:Drivers/STM32G4xx_HAL_Driver/Src/stm32g4xx_hal_comp.c ****     {
ARM GAS  C:\Users\T1\AppData\Local\Temp\cciVZ2by.s 			page 11


 543:Drivers/STM32G4xx_HAL_Driver/Src/stm32g4xx_hal_comp.c ****       hcomp->MspDeInitCallback = HAL_COMP_MspDeInit; /* Legacy weak MspDeInit  */
 544:Drivers/STM32G4xx_HAL_Driver/Src/stm32g4xx_hal_comp.c ****     }
 545:Drivers/STM32G4xx_HAL_Driver/Src/stm32g4xx_hal_comp.c **** 
 546:Drivers/STM32G4xx_HAL_Driver/Src/stm32g4xx_hal_comp.c ****     /* DeInit the low level hardware: GPIO, RCC clock, NVIC */
 547:Drivers/STM32G4xx_HAL_Driver/Src/stm32g4xx_hal_comp.c ****     hcomp->MspDeInitCallback(hcomp);
 548:Drivers/STM32G4xx_HAL_Driver/Src/stm32g4xx_hal_comp.c **** #else
 549:Drivers/STM32G4xx_HAL_Driver/Src/stm32g4xx_hal_comp.c ****     /* DeInit the low level hardware: GPIO, RCC clock, NVIC */
 550:Drivers/STM32G4xx_HAL_Driver/Src/stm32g4xx_hal_comp.c ****     HAL_COMP_MspDeInit(hcomp);
 551:Drivers/STM32G4xx_HAL_Driver/Src/stm32g4xx_hal_comp.c **** #endif /* USE_HAL_COMP_REGISTER_CALLBACKS */
 552:Drivers/STM32G4xx_HAL_Driver/Src/stm32g4xx_hal_comp.c **** 
 553:Drivers/STM32G4xx_HAL_Driver/Src/stm32g4xx_hal_comp.c ****     /* Set HAL COMP handle state */
 554:Drivers/STM32G4xx_HAL_Driver/Src/stm32g4xx_hal_comp.c ****     hcomp->State = HAL_COMP_STATE_RESET;
 555:Drivers/STM32G4xx_HAL_Driver/Src/stm32g4xx_hal_comp.c **** 
 556:Drivers/STM32G4xx_HAL_Driver/Src/stm32g4xx_hal_comp.c ****     /* Release Lock */
 557:Drivers/STM32G4xx_HAL_Driver/Src/stm32g4xx_hal_comp.c ****     __HAL_UNLOCK(hcomp);
 558:Drivers/STM32G4xx_HAL_Driver/Src/stm32g4xx_hal_comp.c ****   }
 559:Drivers/STM32G4xx_HAL_Driver/Src/stm32g4xx_hal_comp.c **** 
 560:Drivers/STM32G4xx_HAL_Driver/Src/stm32g4xx_hal_comp.c ****   return status;
 561:Drivers/STM32G4xx_HAL_Driver/Src/stm32g4xx_hal_comp.c **** }
 562:Drivers/STM32G4xx_HAL_Driver/Src/stm32g4xx_hal_comp.c **** 
 563:Drivers/STM32G4xx_HAL_Driver/Src/stm32g4xx_hal_comp.c **** /**
 564:Drivers/STM32G4xx_HAL_Driver/Src/stm32g4xx_hal_comp.c ****   * @brief  Initialize the COMP MSP.
 565:Drivers/STM32G4xx_HAL_Driver/Src/stm32g4xx_hal_comp.c ****   * @param  hcomp  COMP handle
 566:Drivers/STM32G4xx_HAL_Driver/Src/stm32g4xx_hal_comp.c ****   * @retval None
 567:Drivers/STM32G4xx_HAL_Driver/Src/stm32g4xx_hal_comp.c ****   */
 568:Drivers/STM32G4xx_HAL_Driver/Src/stm32g4xx_hal_comp.c **** __weak void HAL_COMP_MspInit(COMP_HandleTypeDef *hcomp)
 569:Drivers/STM32G4xx_HAL_Driver/Src/stm32g4xx_hal_comp.c **** {
  30              		.loc 1 569 1 view -0
  31              		.cfi_startproc
  32              		@ args = 0, pretend = 0, frame = 0
  33              		@ frame_needed = 0, uses_anonymous_args = 0
  34              		@ link register save eliminated.
 570:Drivers/STM32G4xx_HAL_Driver/Src/stm32g4xx_hal_comp.c ****   /* Prevent unused argument(s) compilation warning */
 571:Drivers/STM32G4xx_HAL_Driver/Src/stm32g4xx_hal_comp.c ****   UNUSED(hcomp);
  35              		.loc 1 571 3 view .LVU1
 572:Drivers/STM32G4xx_HAL_Driver/Src/stm32g4xx_hal_comp.c **** 
 573:Drivers/STM32G4xx_HAL_Driver/Src/stm32g4xx_hal_comp.c ****   /* NOTE : This function should not be modified, when the callback is needed,
 574:Drivers/STM32G4xx_HAL_Driver/Src/stm32g4xx_hal_comp.c ****             the HAL_COMP_MspInit could be implemented in the user file
 575:Drivers/STM32G4xx_HAL_Driver/Src/stm32g4xx_hal_comp.c ****    */
 576:Drivers/STM32G4xx_HAL_Driver/Src/stm32g4xx_hal_comp.c **** }
  36              		.loc 1 576 1 is_stmt 0 view .LVU2
  37 0000 7047     		bx	lr
  38              		.cfi_endproc
  39              	.LFE363:
  41              		.section	.text.HAL_COMP_Init,"ax",%progbits
  42              		.align	1
  43              		.global	HAL_COMP_Init
  44              		.syntax unified
  45              		.thumb
  46              		.thumb_func
  48              	HAL_COMP_Init:
  49              	.LVL1:
  50              	.LFB361:
 226:Drivers/STM32G4xx_HAL_Driver/Src/stm32g4xx_hal_comp.c ****   uint32_t tmp_csr;
  51              		.loc 1 226 1 is_stmt 1 view -0
  52              		.cfi_startproc
  53              		@ args = 0, pretend = 0, frame = 8
ARM GAS  C:\Users\T1\AppData\Local\Temp\cciVZ2by.s 			page 12


  54              		@ frame_needed = 0, uses_anonymous_args = 0
 226:Drivers/STM32G4xx_HAL_Driver/Src/stm32g4xx_hal_comp.c ****   uint32_t tmp_csr;
  55              		.loc 1 226 1 is_stmt 0 view .LVU4
  56 0000 30B5     		push	{r4, r5, lr}
  57              	.LCFI0:
  58              		.cfi_def_cfa_offset 12
  59              		.cfi_offset 4, -12
  60              		.cfi_offset 5, -8
  61              		.cfi_offset 14, -4
  62 0002 83B0     		sub	sp, sp, #12
  63              	.LCFI1:
  64              		.cfi_def_cfa_offset 24
 227:Drivers/STM32G4xx_HAL_Driver/Src/stm32g4xx_hal_comp.c ****   uint32_t exti_line;
  65              		.loc 1 227 3 is_stmt 1 view .LVU5
 228:Drivers/STM32G4xx_HAL_Driver/Src/stm32g4xx_hal_comp.c ****   uint32_t comp_voltage_scaler_initialized; /* Value "0" if comparator voltage scaler is not initia
  66              		.loc 1 228 3 view .LVU6
 229:Drivers/STM32G4xx_HAL_Driver/Src/stm32g4xx_hal_comp.c ****   __IO uint32_t wait_loop_index = 0UL;
  67              		.loc 1 229 3 view .LVU7
 230:Drivers/STM32G4xx_HAL_Driver/Src/stm32g4xx_hal_comp.c ****   HAL_StatusTypeDef status = HAL_OK;
  68              		.loc 1 230 3 view .LVU8
 230:Drivers/STM32G4xx_HAL_Driver/Src/stm32g4xx_hal_comp.c ****   HAL_StatusTypeDef status = HAL_OK;
  69              		.loc 1 230 17 is_stmt 0 view .LVU9
  70 0004 0023     		movs	r3, #0
  71 0006 0193     		str	r3, [sp, #4]
 231:Drivers/STM32G4xx_HAL_Driver/Src/stm32g4xx_hal_comp.c **** 
  72              		.loc 1 231 3 is_stmt 1 view .LVU10
  73              	.LVL2:
 234:Drivers/STM32G4xx_HAL_Driver/Src/stm32g4xx_hal_comp.c ****   {
  74              		.loc 1 234 3 view .LVU11
 234:Drivers/STM32G4xx_HAL_Driver/Src/stm32g4xx_hal_comp.c ****   {
  75              		.loc 1 234 5 is_stmt 0 view .LVU12
  76 0008 0028     		cmp	r0, #0
  77 000a 00F03181 		beq	.L42
  78 000e 0446     		mov	r4, r0
 238:Drivers/STM32G4xx_HAL_Driver/Src/stm32g4xx_hal_comp.c ****   {
  79              		.loc 1 238 8 is_stmt 1 view .LVU13
 238:Drivers/STM32G4xx_HAL_Driver/Src/stm32g4xx_hal_comp.c ****   {
  80              		.loc 1 238 11 is_stmt 0 view .LVU14
  81 0010 0368     		ldr	r3, [r0]
  82 0012 1B68     		ldr	r3, [r3]
 238:Drivers/STM32G4xx_HAL_Driver/Src/stm32g4xx_hal_comp.c ****   {
  83              		.loc 1 238 10 view .LVU15
  84 0014 002B     		cmp	r3, #0
  85 0016 C0F22E81 		blt	.L43
 245:Drivers/STM32G4xx_HAL_Driver/Src/stm32g4xx_hal_comp.c ****     assert_param(IS_COMP_INPUT_PLUS(hcomp->Instance, hcomp->Init.InputPlus));
  86              		.loc 1 245 5 is_stmt 1 view .LVU16
 246:Drivers/STM32G4xx_HAL_Driver/Src/stm32g4xx_hal_comp.c ****     assert_param(IS_COMP_INPUT_MINUS(hcomp->Instance, hcomp->Init.InputMinus));
  87              		.loc 1 246 5 view .LVU17
 247:Drivers/STM32G4xx_HAL_Driver/Src/stm32g4xx_hal_comp.c ****     assert_param(IS_COMP_OUTPUTPOL(hcomp->Init.OutputPol));
  88              		.loc 1 247 5 view .LVU18
 248:Drivers/STM32G4xx_HAL_Driver/Src/stm32g4xx_hal_comp.c ****     assert_param(IS_COMP_HYSTERESIS(hcomp->Init.Hysteresis));
  89              		.loc 1 248 5 view .LVU19
 249:Drivers/STM32G4xx_HAL_Driver/Src/stm32g4xx_hal_comp.c ****     assert_param(IS_COMP_BLANKINGSRC_INSTANCE(hcomp->Instance, hcomp->Init.BlankingSrce));
  90              		.loc 1 249 5 view .LVU20
 250:Drivers/STM32G4xx_HAL_Driver/Src/stm32g4xx_hal_comp.c ****     assert_param(IS_COMP_TRIGGERMODE(hcomp->Init.TriggerMode));
  91              		.loc 1 250 5 view .LVU21
 251:Drivers/STM32G4xx_HAL_Driver/Src/stm32g4xx_hal_comp.c **** 
ARM GAS  C:\Users\T1\AppData\Local\Temp\cciVZ2by.s 			page 13


  92              		.loc 1 251 5 view .LVU22
 253:Drivers/STM32G4xx_HAL_Driver/Src/stm32g4xx_hal_comp.c ****     {
  93              		.loc 1 253 5 view .LVU23
 253:Drivers/STM32G4xx_HAL_Driver/Src/stm32g4xx_hal_comp.c ****     {
  94              		.loc 1 253 13 is_stmt 0 view .LVU24
  95 001a 437F     		ldrb	r3, [r0, #29]	@ zero_extendqisi2
 253:Drivers/STM32G4xx_HAL_Driver/Src/stm32g4xx_hal_comp.c ****     {
  96              		.loc 1 253 7 view .LVU25
  97 001c 23B3     		cbz	r3, .L52
  98              	.LVL3:
  99              	.L4:
 286:Drivers/STM32G4xx_HAL_Driver/Src/stm32g4xx_hal_comp.c **** 
 100              		.loc 1 286 5 is_stmt 1 view .LVU26
 286:Drivers/STM32G4xx_HAL_Driver/Src/stm32g4xx_hal_comp.c **** 
 101              		.loc 1 286 39 is_stmt 0 view .LVU27
 102 001e 2168     		ldr	r1, [r4]
 103 0020 0868     		ldr	r0, [r1]
 286:Drivers/STM32G4xx_HAL_Driver/Src/stm32g4xx_hal_comp.c **** 
 104              		.loc 1 286 37 view .LVU28
 105 0022 00F40000 		and	r0, r0, #8388608
 106              	.LVL4:
 289:Drivers/STM32G4xx_HAL_Driver/Src/stm32g4xx_hal_comp.c ****                | hcomp->Init.InputPlus
 107              		.loc 1 289 5 is_stmt 1 view .LVU29
 289:Drivers/STM32G4xx_HAL_Driver/Src/stm32g4xx_hal_comp.c ****                | hcomp->Init.InputPlus
 108              		.loc 1 289 29 is_stmt 0 view .LVU30
 109 0026 A368     		ldr	r3, [r4, #8]
 290:Drivers/STM32G4xx_HAL_Driver/Src/stm32g4xx_hal_comp.c ****                | hcomp->Init.BlankingSrce
 110              		.loc 1 290 29 view .LVU31
 111 0028 6268     		ldr	r2, [r4, #4]
 290:Drivers/STM32G4xx_HAL_Driver/Src/stm32g4xx_hal_comp.c ****                | hcomp->Init.BlankingSrce
 112              		.loc 1 290 16 view .LVU32
 113 002a 1343     		orrs	r3, r3, r2
 291:Drivers/STM32G4xx_HAL_Driver/Src/stm32g4xx_hal_comp.c ****                | hcomp->Init.Hysteresis
 114              		.loc 1 291 29 view .LVU33
 115 002c 6269     		ldr	r2, [r4, #20]
 291:Drivers/STM32G4xx_HAL_Driver/Src/stm32g4xx_hal_comp.c ****                | hcomp->Init.Hysteresis
 116              		.loc 1 291 16 view .LVU34
 117 002e 1343     		orrs	r3, r3, r2
 292:Drivers/STM32G4xx_HAL_Driver/Src/stm32g4xx_hal_comp.c ****                | hcomp->Init.OutputPol
 118              		.loc 1 292 29 view .LVU35
 119 0030 E268     		ldr	r2, [r4, #12]
 292:Drivers/STM32G4xx_HAL_Driver/Src/stm32g4xx_hal_comp.c ****                | hcomp->Init.OutputPol
 120              		.loc 1 292 16 view .LVU36
 121 0032 1343     		orrs	r3, r3, r2
 293:Drivers/STM32G4xx_HAL_Driver/Src/stm32g4xx_hal_comp.c ****               );
 122              		.loc 1 293 29 view .LVU37
 123 0034 2269     		ldr	r2, [r4, #16]
 289:Drivers/STM32G4xx_HAL_Driver/Src/stm32g4xx_hal_comp.c ****                | hcomp->Init.InputPlus
 124              		.loc 1 289 13 view .LVU38
 125 0036 1343     		orrs	r3, r3, r2
 126              	.LVL5:
 298:Drivers/STM32G4xx_HAL_Driver/Src/stm32g4xx_hal_comp.c ****                COMP_CSR_INMSEL   | COMP_CSR_INPSEL |
 127              		.loc 1 298 5 is_stmt 1 view .LVU39
 128 0038 0D68     		ldr	r5, [r1]
 129 003a 914A     		ldr	r2, .L54
 130 003c 2A40     		ands	r2, r2, r5
 131 003e 1A43     		orrs	r2, r2, r3
ARM GAS  C:\Users\T1\AppData\Local\Temp\cciVZ2by.s 			page 14


 132 0040 0A60     		str	r2, [r1]
 307:Drivers/STM32G4xx_HAL_Driver/Src/stm32g4xx_hal_comp.c ****         (comp_voltage_scaler_initialized == 0UL)               )
 133              		.loc 1 307 5 view .LVU40
 307:Drivers/STM32G4xx_HAL_Driver/Src/stm32g4xx_hal_comp.c ****         (comp_voltage_scaler_initialized == 0UL)               )
 134              		.loc 1 307 10 is_stmt 0 view .LVU41
 135 0042 2268     		ldr	r2, [r4]
 136 0044 1368     		ldr	r3, [r2]
 137              	.LVL6:
 307:Drivers/STM32G4xx_HAL_Driver/Src/stm32g4xx_hal_comp.c ****         (comp_voltage_scaler_initialized == 0UL)               )
 138              		.loc 1 307 8 view .LVU42
 139 0046 13F4000F 		tst	r3, #8388608
 140 004a 18D0     		beq	.L5
 307:Drivers/STM32G4xx_HAL_Driver/Src/stm32g4xx_hal_comp.c ****         (comp_voltage_scaler_initialized == 0UL)               )
 141              		.loc 1 307 66 discriminator 1 view .LVU43
 142 004c B8B9     		cbnz	r0, .L5
 314:Drivers/STM32G4xx_HAL_Driver/Src/stm32g4xx_hal_comp.c ****       while(wait_loop_index != 0UL)
 143              		.loc 1 314 7 is_stmt 1 view .LVU44
 314:Drivers/STM32G4xx_HAL_Driver/Src/stm32g4xx_hal_comp.c ****       while(wait_loop_index != 0UL)
 144              		.loc 1 314 89 is_stmt 0 view .LVU45
 145 004e 8D4B     		ldr	r3, .L54+4
 146 0050 1B68     		ldr	r3, [r3]
 147 0052 9B09     		lsrs	r3, r3, #6
 148 0054 8C49     		ldr	r1, .L54+8
 149 0056 A1FB0313 		umull	r1, r3, r1, r3
 150 005a 9B09     		lsrs	r3, r3, #6
 314:Drivers/STM32G4xx_HAL_Driver/Src/stm32g4xx_hal_comp.c ****       while(wait_loop_index != 0UL)
 151              		.loc 1 314 69 view .LVU46
 152 005c 0133     		adds	r3, r3, #1
 153 005e 03EB8303 		add	r3, r3, r3, lsl #2
 154 0062 9B00     		lsls	r3, r3, #2
 314:Drivers/STM32G4xx_HAL_Driver/Src/stm32g4xx_hal_comp.c ****       while(wait_loop_index != 0UL)
 155              		.loc 1 314 23 view .LVU47
 156 0064 0193     		str	r3, [sp, #4]
 315:Drivers/STM32G4xx_HAL_Driver/Src/stm32g4xx_hal_comp.c ****       {
 157              		.loc 1 315 7 is_stmt 1 view .LVU48
 315:Drivers/STM32G4xx_HAL_Driver/Src/stm32g4xx_hal_comp.c ****       {
 158              		.loc 1 315 12 is_stmt 0 view .LVU49
 159 0066 07E0     		b	.L6
 160              	.LVL7:
 161              	.L52:
 256:Drivers/STM32G4xx_HAL_Driver/Src/stm32g4xx_hal_comp.c **** 
 162              		.loc 1 256 7 is_stmt 1 view .LVU50
 256:Drivers/STM32G4xx_HAL_Driver/Src/stm32g4xx_hal_comp.c **** 
 163              		.loc 1 256 19 is_stmt 0 view .LVU51
 164 0068 0377     		strb	r3, [r0, #28]
 259:Drivers/STM32G4xx_HAL_Driver/Src/stm32g4xx_hal_comp.c **** 
 165              		.loc 1 259 7 is_stmt 1 view .LVU52
 166 006a 0362     		str	r3, [r0, #32]
 281:Drivers/STM32G4xx_HAL_Driver/Src/stm32g4xx_hal_comp.c **** #endif /* USE_HAL_COMP_REGISTER_CALLBACKS */
 167              		.loc 1 281 7 view .LVU53
 168 006c FFF7FEFF 		bl	HAL_COMP_MspInit
 169              	.LVL8:
 281:Drivers/STM32G4xx_HAL_Driver/Src/stm32g4xx_hal_comp.c **** #endif /* USE_HAL_COMP_REGISTER_CALLBACKS */
 170              		.loc 1 281 7 is_stmt 0 view .LVU54
 171 0070 D5E7     		b	.L4
 172              	.LVL9:
 173              	.L7:
ARM GAS  C:\Users\T1\AppData\Local\Temp\cciVZ2by.s 			page 15


 317:Drivers/STM32G4xx_HAL_Driver/Src/stm32g4xx_hal_comp.c ****       }
 174              		.loc 1 317 9 is_stmt 1 view .LVU55
 317:Drivers/STM32G4xx_HAL_Driver/Src/stm32g4xx_hal_comp.c ****       }
 175              		.loc 1 317 24 is_stmt 0 view .LVU56
 176 0072 019B     		ldr	r3, [sp, #4]
 177 0074 013B     		subs	r3, r3, #1
 178 0076 0193     		str	r3, [sp, #4]
 179              	.L6:
 315:Drivers/STM32G4xx_HAL_Driver/Src/stm32g4xx_hal_comp.c ****       {
 180              		.loc 1 315 29 is_stmt 1 view .LVU57
 181 0078 019B     		ldr	r3, [sp, #4]
 182 007a 002B     		cmp	r3, #0
 183 007c F9D1     		bne	.L7
 184              	.L5:
 322:Drivers/STM32G4xx_HAL_Driver/Src/stm32g4xx_hal_comp.c **** 
 185              		.loc 1 322 5 view .LVU58
 322:Drivers/STM32G4xx_HAL_Driver/Src/stm32g4xx_hal_comp.c **** 
 186              		.loc 1 322 17 is_stmt 0 view .LVU59
 187 007e 834B     		ldr	r3, .L54+12
 188 0080 9A42     		cmp	r2, r3
 189 0082 12D0     		beq	.L44
 322:Drivers/STM32G4xx_HAL_Driver/Src/stm32g4xx_hal_comp.c **** 
 190              		.loc 1 322 17 discriminator 1 view .LVU60
 191 0084 0433     		adds	r3, r3, #4
 192 0086 9A42     		cmp	r2, r3
 193 0088 24D0     		beq	.L45
 322:Drivers/STM32G4xx_HAL_Driver/Src/stm32g4xx_hal_comp.c **** 
 194              		.loc 1 322 17 discriminator 3 view .LVU61
 195 008a 0433     		adds	r3, r3, #4
 196 008c 9A42     		cmp	r2, r3
 197 008e 24D0     		beq	.L46
 322:Drivers/STM32G4xx_HAL_Driver/Src/stm32g4xx_hal_comp.c **** 
 198              		.loc 1 322 17 discriminator 5 view .LVU62
 199 0090 0433     		adds	r3, r3, #4
 200 0092 9A42     		cmp	r2, r3
 201 0094 24D0     		beq	.L47
 322:Drivers/STM32G4xx_HAL_Driver/Src/stm32g4xx_hal_comp.c **** 
 202              		.loc 1 322 17 discriminator 7 view .LVU63
 203 0096 0433     		adds	r3, r3, #4
 204 0098 9A42     		cmp	r2, r3
 205 009a 24D0     		beq	.L48
 322:Drivers/STM32G4xx_HAL_Driver/Src/stm32g4xx_hal_comp.c **** 
 206              		.loc 1 322 17 discriminator 9 view .LVU64
 207 009c 0433     		adds	r3, r3, #4
 208 009e 9A42     		cmp	r2, r3
 209 00a0 01D0     		beq	.L53
 322:Drivers/STM32G4xx_HAL_Driver/Src/stm32g4xx_hal_comp.c **** 
 210              		.loc 1 322 17 view .LVU65
 211 00a2 0223     		movs	r3, #2
 212 00a4 03E0     		b	.L8
 213              	.L53:
 214 00a6 0123     		movs	r3, #1
 215 00a8 01E0     		b	.L8
 216              	.L44:
 217 00aa 4FF40013 		mov	r3, #2097152
 218              	.L8:
 219              	.LVL10:
ARM GAS  C:\Users\T1\AppData\Local\Temp\cciVZ2by.s 			page 16


 325:Drivers/STM32G4xx_HAL_Driver/Src/stm32g4xx_hal_comp.c ****     {
 220              		.loc 1 325 5 is_stmt 1 discriminator 24 view .LVU66
 325:Drivers/STM32G4xx_HAL_Driver/Src/stm32g4xx_hal_comp.c ****     {
 221              		.loc 1 325 20 is_stmt 0 discriminator 24 view .LVU67
 222 00ae A169     		ldr	r1, [r4, #24]
 325:Drivers/STM32G4xx_HAL_Driver/Src/stm32g4xx_hal_comp.c ****     {
 223              		.loc 1 325 7 discriminator 24 view .LVU68
 224 00b0 11F0030F 		tst	r1, #3
 225 00b4 00F0B280 		beq	.L9
 328:Drivers/STM32G4xx_HAL_Driver/Src/stm32g4xx_hal_comp.c ****       {
 226              		.loc 1 328 7 is_stmt 1 view .LVU69
 328:Drivers/STM32G4xx_HAL_Driver/Src/stm32g4xx_hal_comp.c ****       {
 227              		.loc 1 328 9 is_stmt 0 view .LVU70
 228 00b8 11F0100F 		tst	r1, #16
 229 00bc 2AD0     		beq	.L10
 331:Drivers/STM32G4xx_HAL_Driver/Src/stm32g4xx_hal_comp.c ****         {
 230              		.loc 1 331 9 is_stmt 1 view .LVU71
 331:Drivers/STM32G4xx_HAL_Driver/Src/stm32g4xx_hal_comp.c ****         {
 231              		.loc 1 331 11 is_stmt 0 view .LVU72
 232 00be 7449     		ldr	r1, .L54+16
 233 00c0 8A42     		cmp	r2, r1
 234 00c2 13D0     		beq	.L11
 331:Drivers/STM32G4xx_HAL_Driver/Src/stm32g4xx_hal_comp.c ****         {
 235              		.loc 1 331 39 discriminator 1 view .LVU73
 236 00c4 0431     		adds	r1, r1, #4
 237 00c6 8A42     		cmp	r2, r1
 238 00c8 10D0     		beq	.L11
 337:Drivers/STM32G4xx_HAL_Driver/Src/stm32g4xx_hal_comp.c ****         }
 239              		.loc 1 337 11 is_stmt 1 view .LVU74
 240              	.LVL11:
 241              	.LBB54:
 242              	.LBI54:
 243              		.file 2 "Drivers/STM32G4xx_HAL_Driver/Inc/stm32g4xx_ll_exti.h"
   1:Drivers/STM32G4xx_HAL_Driver/Inc/stm32g4xx_ll_exti.h **** /**
   2:Drivers/STM32G4xx_HAL_Driver/Inc/stm32g4xx_ll_exti.h ****   ******************************************************************************
   3:Drivers/STM32G4xx_HAL_Driver/Inc/stm32g4xx_ll_exti.h ****   * @file    stm32g4xx_ll_exti.h
   4:Drivers/STM32G4xx_HAL_Driver/Inc/stm32g4xx_ll_exti.h ****   * @author  MCD Application Team
   5:Drivers/STM32G4xx_HAL_Driver/Inc/stm32g4xx_ll_exti.h ****   * @brief   Header file of EXTI LL module.
   6:Drivers/STM32G4xx_HAL_Driver/Inc/stm32g4xx_ll_exti.h ****   ******************************************************************************
   7:Drivers/STM32G4xx_HAL_Driver/Inc/stm32g4xx_ll_exti.h ****   * @attention
   8:Drivers/STM32G4xx_HAL_Driver/Inc/stm32g4xx_ll_exti.h ****   *
   9:Drivers/STM32G4xx_HAL_Driver/Inc/stm32g4xx_ll_exti.h ****   * Copyright (c) 2019 STMicroelectronics.
  10:Drivers/STM32G4xx_HAL_Driver/Inc/stm32g4xx_ll_exti.h ****   * All rights reserved.
  11:Drivers/STM32G4xx_HAL_Driver/Inc/stm32g4xx_ll_exti.h ****   *
  12:Drivers/STM32G4xx_HAL_Driver/Inc/stm32g4xx_ll_exti.h ****   * This software is licensed under terms that can be found in the LICENSE file
  13:Drivers/STM32G4xx_HAL_Driver/Inc/stm32g4xx_ll_exti.h ****   * in the root directory of this software component.
  14:Drivers/STM32G4xx_HAL_Driver/Inc/stm32g4xx_ll_exti.h ****   * If no LICENSE file comes with this software, it is provided AS-IS.
  15:Drivers/STM32G4xx_HAL_Driver/Inc/stm32g4xx_ll_exti.h ****   *
  16:Drivers/STM32G4xx_HAL_Driver/Inc/stm32g4xx_ll_exti.h ****   ******************************************************************************
  17:Drivers/STM32G4xx_HAL_Driver/Inc/stm32g4xx_ll_exti.h ****   */
  18:Drivers/STM32G4xx_HAL_Driver/Inc/stm32g4xx_ll_exti.h **** 
  19:Drivers/STM32G4xx_HAL_Driver/Inc/stm32g4xx_ll_exti.h **** /* Define to prevent recursive inclusion -------------------------------------*/
  20:Drivers/STM32G4xx_HAL_Driver/Inc/stm32g4xx_ll_exti.h **** #ifndef __STM32G4xx_LL_EXTI_H
  21:Drivers/STM32G4xx_HAL_Driver/Inc/stm32g4xx_ll_exti.h **** #define __STM32G4xx_LL_EXTI_H
  22:Drivers/STM32G4xx_HAL_Driver/Inc/stm32g4xx_ll_exti.h **** 
  23:Drivers/STM32G4xx_HAL_Driver/Inc/stm32g4xx_ll_exti.h **** #ifdef __cplusplus
  24:Drivers/STM32G4xx_HAL_Driver/Inc/stm32g4xx_ll_exti.h **** extern "C" {
ARM GAS  C:\Users\T1\AppData\Local\Temp\cciVZ2by.s 			page 17


  25:Drivers/STM32G4xx_HAL_Driver/Inc/stm32g4xx_ll_exti.h **** #endif
  26:Drivers/STM32G4xx_HAL_Driver/Inc/stm32g4xx_ll_exti.h **** 
  27:Drivers/STM32G4xx_HAL_Driver/Inc/stm32g4xx_ll_exti.h **** /* Includes ------------------------------------------------------------------*/
  28:Drivers/STM32G4xx_HAL_Driver/Inc/stm32g4xx_ll_exti.h **** #include "stm32g4xx.h"
  29:Drivers/STM32G4xx_HAL_Driver/Inc/stm32g4xx_ll_exti.h **** 
  30:Drivers/STM32G4xx_HAL_Driver/Inc/stm32g4xx_ll_exti.h **** /** @addtogroup STM32G4xx_LL_Driver
  31:Drivers/STM32G4xx_HAL_Driver/Inc/stm32g4xx_ll_exti.h ****   * @{
  32:Drivers/STM32G4xx_HAL_Driver/Inc/stm32g4xx_ll_exti.h ****   */
  33:Drivers/STM32G4xx_HAL_Driver/Inc/stm32g4xx_ll_exti.h **** 
  34:Drivers/STM32G4xx_HAL_Driver/Inc/stm32g4xx_ll_exti.h **** #if defined (EXTI)
  35:Drivers/STM32G4xx_HAL_Driver/Inc/stm32g4xx_ll_exti.h **** 
  36:Drivers/STM32G4xx_HAL_Driver/Inc/stm32g4xx_ll_exti.h **** /** @defgroup EXTI_LL EXTI
  37:Drivers/STM32G4xx_HAL_Driver/Inc/stm32g4xx_ll_exti.h ****   * @{
  38:Drivers/STM32G4xx_HAL_Driver/Inc/stm32g4xx_ll_exti.h ****   */
  39:Drivers/STM32G4xx_HAL_Driver/Inc/stm32g4xx_ll_exti.h **** 
  40:Drivers/STM32G4xx_HAL_Driver/Inc/stm32g4xx_ll_exti.h **** /* Private types -------------------------------------------------------------*/
  41:Drivers/STM32G4xx_HAL_Driver/Inc/stm32g4xx_ll_exti.h **** /* Private variables ---------------------------------------------------------*/
  42:Drivers/STM32G4xx_HAL_Driver/Inc/stm32g4xx_ll_exti.h **** /* Private constants ---------------------------------------------------------*/
  43:Drivers/STM32G4xx_HAL_Driver/Inc/stm32g4xx_ll_exti.h **** /* Private Macros ------------------------------------------------------------*/
  44:Drivers/STM32G4xx_HAL_Driver/Inc/stm32g4xx_ll_exti.h **** #if defined(USE_FULL_LL_DRIVER)
  45:Drivers/STM32G4xx_HAL_Driver/Inc/stm32g4xx_ll_exti.h **** /** @defgroup EXTI_LL_Private_Macros EXTI Private Macros
  46:Drivers/STM32G4xx_HAL_Driver/Inc/stm32g4xx_ll_exti.h ****   * @{
  47:Drivers/STM32G4xx_HAL_Driver/Inc/stm32g4xx_ll_exti.h ****   */
  48:Drivers/STM32G4xx_HAL_Driver/Inc/stm32g4xx_ll_exti.h **** /**
  49:Drivers/STM32G4xx_HAL_Driver/Inc/stm32g4xx_ll_exti.h ****   * @}
  50:Drivers/STM32G4xx_HAL_Driver/Inc/stm32g4xx_ll_exti.h ****   */
  51:Drivers/STM32G4xx_HAL_Driver/Inc/stm32g4xx_ll_exti.h **** #endif /*USE_FULL_LL_DRIVER*/
  52:Drivers/STM32G4xx_HAL_Driver/Inc/stm32g4xx_ll_exti.h **** /* Exported types ------------------------------------------------------------*/
  53:Drivers/STM32G4xx_HAL_Driver/Inc/stm32g4xx_ll_exti.h **** #if defined(USE_FULL_LL_DRIVER)
  54:Drivers/STM32G4xx_HAL_Driver/Inc/stm32g4xx_ll_exti.h **** /** @defgroup EXTI_LL_ES_INIT EXTI Exported Init structure
  55:Drivers/STM32G4xx_HAL_Driver/Inc/stm32g4xx_ll_exti.h ****   * @{
  56:Drivers/STM32G4xx_HAL_Driver/Inc/stm32g4xx_ll_exti.h ****   */
  57:Drivers/STM32G4xx_HAL_Driver/Inc/stm32g4xx_ll_exti.h **** typedef struct
  58:Drivers/STM32G4xx_HAL_Driver/Inc/stm32g4xx_ll_exti.h **** {
  59:Drivers/STM32G4xx_HAL_Driver/Inc/stm32g4xx_ll_exti.h **** 
  60:Drivers/STM32G4xx_HAL_Driver/Inc/stm32g4xx_ll_exti.h ****   uint32_t Line_0_31;           /*!< Specifies the EXTI lines to be enabled or disabled for Lines i
  61:Drivers/STM32G4xx_HAL_Driver/Inc/stm32g4xx_ll_exti.h ****                                      This parameter can be any combination of @ref EXTI_LL_EC_LINE 
  62:Drivers/STM32G4xx_HAL_Driver/Inc/stm32g4xx_ll_exti.h **** 
  63:Drivers/STM32G4xx_HAL_Driver/Inc/stm32g4xx_ll_exti.h ****   uint32_t Line_32_63;          /*!< Specifies the EXTI lines to be enabled or disabled for Lines i
  64:Drivers/STM32G4xx_HAL_Driver/Inc/stm32g4xx_ll_exti.h ****                                      This parameter can be any combination of @ref EXTI_LL_EC_LINE 
  65:Drivers/STM32G4xx_HAL_Driver/Inc/stm32g4xx_ll_exti.h **** 
  66:Drivers/STM32G4xx_HAL_Driver/Inc/stm32g4xx_ll_exti.h ****   FunctionalState LineCommand;  /*!< Specifies the new state of the selected EXTI lines.
  67:Drivers/STM32G4xx_HAL_Driver/Inc/stm32g4xx_ll_exti.h ****                                      This parameter can be set either to ENABLE or DISABLE */
  68:Drivers/STM32G4xx_HAL_Driver/Inc/stm32g4xx_ll_exti.h **** 
  69:Drivers/STM32G4xx_HAL_Driver/Inc/stm32g4xx_ll_exti.h ****   uint8_t Mode;                 /*!< Specifies the mode for the EXTI lines.
  70:Drivers/STM32G4xx_HAL_Driver/Inc/stm32g4xx_ll_exti.h ****                                      This parameter can be a value of @ref EXTI_LL_EC_MODE. */
  71:Drivers/STM32G4xx_HAL_Driver/Inc/stm32g4xx_ll_exti.h **** 
  72:Drivers/STM32G4xx_HAL_Driver/Inc/stm32g4xx_ll_exti.h ****   uint8_t Trigger;              /*!< Specifies the trigger signal active edge for the EXTI lines.
  73:Drivers/STM32G4xx_HAL_Driver/Inc/stm32g4xx_ll_exti.h ****                                      This parameter can be a value of @ref EXTI_LL_EC_TRIGGER. */
  74:Drivers/STM32G4xx_HAL_Driver/Inc/stm32g4xx_ll_exti.h **** } LL_EXTI_InitTypeDef;
  75:Drivers/STM32G4xx_HAL_Driver/Inc/stm32g4xx_ll_exti.h **** 
  76:Drivers/STM32G4xx_HAL_Driver/Inc/stm32g4xx_ll_exti.h **** /**
  77:Drivers/STM32G4xx_HAL_Driver/Inc/stm32g4xx_ll_exti.h ****   * @}
  78:Drivers/STM32G4xx_HAL_Driver/Inc/stm32g4xx_ll_exti.h ****   */
  79:Drivers/STM32G4xx_HAL_Driver/Inc/stm32g4xx_ll_exti.h **** #endif /*USE_FULL_LL_DRIVER*/
  80:Drivers/STM32G4xx_HAL_Driver/Inc/stm32g4xx_ll_exti.h **** 
  81:Drivers/STM32G4xx_HAL_Driver/Inc/stm32g4xx_ll_exti.h **** /* Exported constants --------------------------------------------------------*/
ARM GAS  C:\Users\T1\AppData\Local\Temp\cciVZ2by.s 			page 18


  82:Drivers/STM32G4xx_HAL_Driver/Inc/stm32g4xx_ll_exti.h **** /** @defgroup EXTI_LL_Exported_Constants EXTI Exported Constants
  83:Drivers/STM32G4xx_HAL_Driver/Inc/stm32g4xx_ll_exti.h ****   * @{
  84:Drivers/STM32G4xx_HAL_Driver/Inc/stm32g4xx_ll_exti.h ****   */
  85:Drivers/STM32G4xx_HAL_Driver/Inc/stm32g4xx_ll_exti.h **** 
  86:Drivers/STM32G4xx_HAL_Driver/Inc/stm32g4xx_ll_exti.h **** /** @defgroup EXTI_LL_EC_LINE LINE
  87:Drivers/STM32G4xx_HAL_Driver/Inc/stm32g4xx_ll_exti.h ****   * @{
  88:Drivers/STM32G4xx_HAL_Driver/Inc/stm32g4xx_ll_exti.h ****   */
  89:Drivers/STM32G4xx_HAL_Driver/Inc/stm32g4xx_ll_exti.h **** #define LL_EXTI_LINE_0                 EXTI_IMR1_IM0           /*!< Extended line 0 */
  90:Drivers/STM32G4xx_HAL_Driver/Inc/stm32g4xx_ll_exti.h **** #define LL_EXTI_LINE_1                 EXTI_IMR1_IM1           /*!< Extended line 1 */
  91:Drivers/STM32G4xx_HAL_Driver/Inc/stm32g4xx_ll_exti.h **** #define LL_EXTI_LINE_2                 EXTI_IMR1_IM2           /*!< Extended line 2 */
  92:Drivers/STM32G4xx_HAL_Driver/Inc/stm32g4xx_ll_exti.h **** #define LL_EXTI_LINE_3                 EXTI_IMR1_IM3           /*!< Extended line 3 */
  93:Drivers/STM32G4xx_HAL_Driver/Inc/stm32g4xx_ll_exti.h **** #define LL_EXTI_LINE_4                 EXTI_IMR1_IM4           /*!< Extended line 4 */
  94:Drivers/STM32G4xx_HAL_Driver/Inc/stm32g4xx_ll_exti.h **** #define LL_EXTI_LINE_5                 EXTI_IMR1_IM5           /*!< Extended line 5 */
  95:Drivers/STM32G4xx_HAL_Driver/Inc/stm32g4xx_ll_exti.h **** #define LL_EXTI_LINE_6                 EXTI_IMR1_IM6           /*!< Extended line 6 */
  96:Drivers/STM32G4xx_HAL_Driver/Inc/stm32g4xx_ll_exti.h **** #define LL_EXTI_LINE_7                 EXTI_IMR1_IM7           /*!< Extended line 7 */
  97:Drivers/STM32G4xx_HAL_Driver/Inc/stm32g4xx_ll_exti.h **** #define LL_EXTI_LINE_8                 EXTI_IMR1_IM8           /*!< Extended line 8 */
  98:Drivers/STM32G4xx_HAL_Driver/Inc/stm32g4xx_ll_exti.h **** #define LL_EXTI_LINE_9                 EXTI_IMR1_IM9           /*!< Extended line 9 */
  99:Drivers/STM32G4xx_HAL_Driver/Inc/stm32g4xx_ll_exti.h **** #define LL_EXTI_LINE_10                EXTI_IMR1_IM10          /*!< Extended line 10 */
 100:Drivers/STM32G4xx_HAL_Driver/Inc/stm32g4xx_ll_exti.h **** #define LL_EXTI_LINE_11                EXTI_IMR1_IM11          /*!< Extended line 11 */
 101:Drivers/STM32G4xx_HAL_Driver/Inc/stm32g4xx_ll_exti.h **** #define LL_EXTI_LINE_12                EXTI_IMR1_IM12          /*!< Extended line 12 */
 102:Drivers/STM32G4xx_HAL_Driver/Inc/stm32g4xx_ll_exti.h **** #define LL_EXTI_LINE_13                EXTI_IMR1_IM13          /*!< Extended line 13 */
 103:Drivers/STM32G4xx_HAL_Driver/Inc/stm32g4xx_ll_exti.h **** #define LL_EXTI_LINE_14                EXTI_IMR1_IM14          /*!< Extended line 14 */
 104:Drivers/STM32G4xx_HAL_Driver/Inc/stm32g4xx_ll_exti.h **** #define LL_EXTI_LINE_15                EXTI_IMR1_IM15          /*!< Extended line 15 */
 105:Drivers/STM32G4xx_HAL_Driver/Inc/stm32g4xx_ll_exti.h **** #if defined(EXTI_IMR1_IM16)
 106:Drivers/STM32G4xx_HAL_Driver/Inc/stm32g4xx_ll_exti.h **** #define LL_EXTI_LINE_16                EXTI_IMR1_IM16          /*!< Extended line 16 */
 107:Drivers/STM32G4xx_HAL_Driver/Inc/stm32g4xx_ll_exti.h **** #endif /* EXTI_IMR1_IM16 */
 108:Drivers/STM32G4xx_HAL_Driver/Inc/stm32g4xx_ll_exti.h **** #define LL_EXTI_LINE_17                EXTI_IMR1_IM17          /*!< Extended line 17 */
 109:Drivers/STM32G4xx_HAL_Driver/Inc/stm32g4xx_ll_exti.h **** #if defined(EXTI_IMR1_IM18)
 110:Drivers/STM32G4xx_HAL_Driver/Inc/stm32g4xx_ll_exti.h **** #define LL_EXTI_LINE_18                EXTI_IMR1_IM18          /*!< Extended line 18 */
 111:Drivers/STM32G4xx_HAL_Driver/Inc/stm32g4xx_ll_exti.h **** #endif /* EXTI_IMR1_IM18 */
 112:Drivers/STM32G4xx_HAL_Driver/Inc/stm32g4xx_ll_exti.h **** #define LL_EXTI_LINE_19                EXTI_IMR1_IM19          /*!< Extended line 19 */
 113:Drivers/STM32G4xx_HAL_Driver/Inc/stm32g4xx_ll_exti.h **** #if defined(EXTI_IMR1_IM20)
 114:Drivers/STM32G4xx_HAL_Driver/Inc/stm32g4xx_ll_exti.h **** #define LL_EXTI_LINE_20                EXTI_IMR1_IM20          /*!< Extended line 20 */
 115:Drivers/STM32G4xx_HAL_Driver/Inc/stm32g4xx_ll_exti.h **** #endif /* EXTI_IMR1_IM20 */
 116:Drivers/STM32G4xx_HAL_Driver/Inc/stm32g4xx_ll_exti.h **** #if defined(EXTI_IMR1_IM21)
 117:Drivers/STM32G4xx_HAL_Driver/Inc/stm32g4xx_ll_exti.h **** #define LL_EXTI_LINE_21                EXTI_IMR1_IM21          /*!< Extended line 21 */
 118:Drivers/STM32G4xx_HAL_Driver/Inc/stm32g4xx_ll_exti.h **** #endif /* EXTI_IMR1_IM21 */
 119:Drivers/STM32G4xx_HAL_Driver/Inc/stm32g4xx_ll_exti.h **** #if defined(EXTI_IMR1_IM22)
 120:Drivers/STM32G4xx_HAL_Driver/Inc/stm32g4xx_ll_exti.h **** #define LL_EXTI_LINE_22                EXTI_IMR1_IM22          /*!< Extended line 22 */
 121:Drivers/STM32G4xx_HAL_Driver/Inc/stm32g4xx_ll_exti.h **** #endif /* EXTI_IMR1_IM22 */
 122:Drivers/STM32G4xx_HAL_Driver/Inc/stm32g4xx_ll_exti.h **** #define LL_EXTI_LINE_23                EXTI_IMR1_IM23          /*!< Extended line 23 */
 123:Drivers/STM32G4xx_HAL_Driver/Inc/stm32g4xx_ll_exti.h **** #if defined(EXTI_IMR1_IM24)
 124:Drivers/STM32G4xx_HAL_Driver/Inc/stm32g4xx_ll_exti.h **** #define LL_EXTI_LINE_24                EXTI_IMR1_IM24          /*!< Extended line 24 */
 125:Drivers/STM32G4xx_HAL_Driver/Inc/stm32g4xx_ll_exti.h **** #endif /* EXTI_IMR1_IM24 */
 126:Drivers/STM32G4xx_HAL_Driver/Inc/stm32g4xx_ll_exti.h **** #if defined(EXTI_IMR1_IM25)
 127:Drivers/STM32G4xx_HAL_Driver/Inc/stm32g4xx_ll_exti.h **** #define LL_EXTI_LINE_25                EXTI_IMR1_IM25          /*!< Extended line 25 */
 128:Drivers/STM32G4xx_HAL_Driver/Inc/stm32g4xx_ll_exti.h **** #endif /* EXTI_IMR1_IM25 */
 129:Drivers/STM32G4xx_HAL_Driver/Inc/stm32g4xx_ll_exti.h **** #if defined(EXTI_IMR1_IM26)
 130:Drivers/STM32G4xx_HAL_Driver/Inc/stm32g4xx_ll_exti.h **** #define LL_EXTI_LINE_26                EXTI_IMR1_IM26          /*!< Extended line 26 */
 131:Drivers/STM32G4xx_HAL_Driver/Inc/stm32g4xx_ll_exti.h **** #endif /* EXTI_IMR1_IM26 */
 132:Drivers/STM32G4xx_HAL_Driver/Inc/stm32g4xx_ll_exti.h **** #if defined(EXTI_IMR1_IM27)
 133:Drivers/STM32G4xx_HAL_Driver/Inc/stm32g4xx_ll_exti.h **** #define LL_EXTI_LINE_27                EXTI_IMR1_IM27          /*!< Extended line 27 */
 134:Drivers/STM32G4xx_HAL_Driver/Inc/stm32g4xx_ll_exti.h **** #endif /* EXTI_IMR1_IM27 */
 135:Drivers/STM32G4xx_HAL_Driver/Inc/stm32g4xx_ll_exti.h **** #if defined(EXTI_IMR1_IM28)
 136:Drivers/STM32G4xx_HAL_Driver/Inc/stm32g4xx_ll_exti.h **** #define LL_EXTI_LINE_28                EXTI_IMR1_IM28          /*!< Extended line 28 */
 137:Drivers/STM32G4xx_HAL_Driver/Inc/stm32g4xx_ll_exti.h **** #endif /* EXTI_IMR1_IM28 */
 138:Drivers/STM32G4xx_HAL_Driver/Inc/stm32g4xx_ll_exti.h **** #if defined(EXTI_IMR1_IM29)
ARM GAS  C:\Users\T1\AppData\Local\Temp\cciVZ2by.s 			page 19


 139:Drivers/STM32G4xx_HAL_Driver/Inc/stm32g4xx_ll_exti.h **** #define LL_EXTI_LINE_29                EXTI_IMR1_IM29          /*!< Extended line 29 */
 140:Drivers/STM32G4xx_HAL_Driver/Inc/stm32g4xx_ll_exti.h **** #endif /* EXTI_IMR1_IM29 */
 141:Drivers/STM32G4xx_HAL_Driver/Inc/stm32g4xx_ll_exti.h **** #if defined(EXTI_IMR1_IM30)
 142:Drivers/STM32G4xx_HAL_Driver/Inc/stm32g4xx_ll_exti.h **** #define LL_EXTI_LINE_30                EXTI_IMR1_IM30          /*!< Extended line 30 */
 143:Drivers/STM32G4xx_HAL_Driver/Inc/stm32g4xx_ll_exti.h **** #endif /* EXTI_IMR1_IM30 */
 144:Drivers/STM32G4xx_HAL_Driver/Inc/stm32g4xx_ll_exti.h **** #if defined(EXTI_IMR1_IM31)
 145:Drivers/STM32G4xx_HAL_Driver/Inc/stm32g4xx_ll_exti.h **** #define LL_EXTI_LINE_31                EXTI_IMR1_IM31          /*!< Extended line 31 */
 146:Drivers/STM32G4xx_HAL_Driver/Inc/stm32g4xx_ll_exti.h **** #endif /* EXTI_IMR1_IM31 */
 147:Drivers/STM32G4xx_HAL_Driver/Inc/stm32g4xx_ll_exti.h **** #define LL_EXTI_LINE_ALL_0_31          EXTI_IMR1_IM            /*!< All Extended line not reserved*
 148:Drivers/STM32G4xx_HAL_Driver/Inc/stm32g4xx_ll_exti.h **** 
 149:Drivers/STM32G4xx_HAL_Driver/Inc/stm32g4xx_ll_exti.h **** #if defined(EXTI_IMR2_IM32)
 150:Drivers/STM32G4xx_HAL_Driver/Inc/stm32g4xx_ll_exti.h **** #define LL_EXTI_LINE_32                EXTI_IMR2_IM32          /*!< Extended line 32 */
 151:Drivers/STM32G4xx_HAL_Driver/Inc/stm32g4xx_ll_exti.h **** #endif /* EXTI_IMR2_IM32 */
 152:Drivers/STM32G4xx_HAL_Driver/Inc/stm32g4xx_ll_exti.h **** #if defined(EXTI_IMR2_IM33)
 153:Drivers/STM32G4xx_HAL_Driver/Inc/stm32g4xx_ll_exti.h **** #define LL_EXTI_LINE_33                EXTI_IMR2_IM33          /*!< Extended line 33 */
 154:Drivers/STM32G4xx_HAL_Driver/Inc/stm32g4xx_ll_exti.h **** #endif /* EXTI_IMR2_IM33 */
 155:Drivers/STM32G4xx_HAL_Driver/Inc/stm32g4xx_ll_exti.h **** #if defined(EXTI_IMR2_IM34)
 156:Drivers/STM32G4xx_HAL_Driver/Inc/stm32g4xx_ll_exti.h **** #define LL_EXTI_LINE_34                EXTI_IMR2_IM34          /*!< Extended line 34 */
 157:Drivers/STM32G4xx_HAL_Driver/Inc/stm32g4xx_ll_exti.h **** #endif /* EXTI_IMR2_IM34 */
 158:Drivers/STM32G4xx_HAL_Driver/Inc/stm32g4xx_ll_exti.h **** #if defined(EXTI_IMR2_IM35)
 159:Drivers/STM32G4xx_HAL_Driver/Inc/stm32g4xx_ll_exti.h **** #define LL_EXTI_LINE_35                EXTI_IMR2_IM35          /*!< Extended line 35 */
 160:Drivers/STM32G4xx_HAL_Driver/Inc/stm32g4xx_ll_exti.h **** #endif /* EXTI_IMR2_IM35 */
 161:Drivers/STM32G4xx_HAL_Driver/Inc/stm32g4xx_ll_exti.h **** #if defined(EXTI_IMR2_IM36)
 162:Drivers/STM32G4xx_HAL_Driver/Inc/stm32g4xx_ll_exti.h **** #define LL_EXTI_LINE_36                EXTI_IMR2_IM36          /*!< Extended line 36 */
 163:Drivers/STM32G4xx_HAL_Driver/Inc/stm32g4xx_ll_exti.h **** #endif /* EXTI_IMR2_IM36 */
 164:Drivers/STM32G4xx_HAL_Driver/Inc/stm32g4xx_ll_exti.h **** #if defined(EXTI_IMR2_IM37)
 165:Drivers/STM32G4xx_HAL_Driver/Inc/stm32g4xx_ll_exti.h **** #define LL_EXTI_LINE_37                EXTI_IMR2_IM37          /*!< Extended line 37 */
 166:Drivers/STM32G4xx_HAL_Driver/Inc/stm32g4xx_ll_exti.h **** #endif /* EXTI_IMR2_IM37 */
 167:Drivers/STM32G4xx_HAL_Driver/Inc/stm32g4xx_ll_exti.h **** #if defined(EXTI_IMR2_IM38)
 168:Drivers/STM32G4xx_HAL_Driver/Inc/stm32g4xx_ll_exti.h **** #define LL_EXTI_LINE_38                EXTI_IMR2_IM38          /*!< Extended line 38 */
 169:Drivers/STM32G4xx_HAL_Driver/Inc/stm32g4xx_ll_exti.h **** #endif /* EXTI_IMR2_IM38 */
 170:Drivers/STM32G4xx_HAL_Driver/Inc/stm32g4xx_ll_exti.h **** #if defined(EXTI_IMR2_IM39)
 171:Drivers/STM32G4xx_HAL_Driver/Inc/stm32g4xx_ll_exti.h **** #define LL_EXTI_LINE_39                EXTI_IMR2_IM39          /*!< Extended line 39 */
 172:Drivers/STM32G4xx_HAL_Driver/Inc/stm32g4xx_ll_exti.h **** #endif /* EXTI_IMR2_IM39 */
 173:Drivers/STM32G4xx_HAL_Driver/Inc/stm32g4xx_ll_exti.h **** #if defined(EXTI_IMR2_IM40)
 174:Drivers/STM32G4xx_HAL_Driver/Inc/stm32g4xx_ll_exti.h **** #define LL_EXTI_LINE_40                EXTI_IMR2_IM40          /*!< Extended line 40 */
 175:Drivers/STM32G4xx_HAL_Driver/Inc/stm32g4xx_ll_exti.h **** #endif /* EXTI_IMR2_IM40 */
 176:Drivers/STM32G4xx_HAL_Driver/Inc/stm32g4xx_ll_exti.h **** #if defined(EXTI_IMR2_IM41)
 177:Drivers/STM32G4xx_HAL_Driver/Inc/stm32g4xx_ll_exti.h **** #define LL_EXTI_LINE_41                EXTI_IMR2_IM41          /*!< Extended line 41 */
 178:Drivers/STM32G4xx_HAL_Driver/Inc/stm32g4xx_ll_exti.h **** #endif /* EXTI_IMR2_IM41 */
 179:Drivers/STM32G4xx_HAL_Driver/Inc/stm32g4xx_ll_exti.h **** #if defined(EXTI_IMR2_IM42)
 180:Drivers/STM32G4xx_HAL_Driver/Inc/stm32g4xx_ll_exti.h **** #define LL_EXTI_LINE_42                EXTI_IMR2_IM42          /*!< Extended line 42 */
 181:Drivers/STM32G4xx_HAL_Driver/Inc/stm32g4xx_ll_exti.h **** #endif /* EXTI_IMR2_IM42 */
 182:Drivers/STM32G4xx_HAL_Driver/Inc/stm32g4xx_ll_exti.h **** #define LL_EXTI_LINE_ALL_32_63         EXTI_IMR2_IM            /*!< All Extended line not reserved*
 183:Drivers/STM32G4xx_HAL_Driver/Inc/stm32g4xx_ll_exti.h **** 
 184:Drivers/STM32G4xx_HAL_Driver/Inc/stm32g4xx_ll_exti.h **** 
 185:Drivers/STM32G4xx_HAL_Driver/Inc/stm32g4xx_ll_exti.h **** #define LL_EXTI_LINE_ALL               (0xFFFFFFFFU)  /*!< All Extended line */
 186:Drivers/STM32G4xx_HAL_Driver/Inc/stm32g4xx_ll_exti.h **** 
 187:Drivers/STM32G4xx_HAL_Driver/Inc/stm32g4xx_ll_exti.h **** #if defined(USE_FULL_LL_DRIVER)
 188:Drivers/STM32G4xx_HAL_Driver/Inc/stm32g4xx_ll_exti.h **** #define LL_EXTI_LINE_NONE              0x00000000U             /*!< None Extended line */
 189:Drivers/STM32G4xx_HAL_Driver/Inc/stm32g4xx_ll_exti.h **** #endif /*USE_FULL_LL_DRIVER*/
 190:Drivers/STM32G4xx_HAL_Driver/Inc/stm32g4xx_ll_exti.h **** 
 191:Drivers/STM32G4xx_HAL_Driver/Inc/stm32g4xx_ll_exti.h **** /**
 192:Drivers/STM32G4xx_HAL_Driver/Inc/stm32g4xx_ll_exti.h ****   * @}
 193:Drivers/STM32G4xx_HAL_Driver/Inc/stm32g4xx_ll_exti.h ****   */
 194:Drivers/STM32G4xx_HAL_Driver/Inc/stm32g4xx_ll_exti.h **** #if defined(USE_FULL_LL_DRIVER)
 195:Drivers/STM32G4xx_HAL_Driver/Inc/stm32g4xx_ll_exti.h **** 
ARM GAS  C:\Users\T1\AppData\Local\Temp\cciVZ2by.s 			page 20


 196:Drivers/STM32G4xx_HAL_Driver/Inc/stm32g4xx_ll_exti.h **** /** @defgroup EXTI_LL_EC_MODE Mode
 197:Drivers/STM32G4xx_HAL_Driver/Inc/stm32g4xx_ll_exti.h ****   * @{
 198:Drivers/STM32G4xx_HAL_Driver/Inc/stm32g4xx_ll_exti.h ****   */
 199:Drivers/STM32G4xx_HAL_Driver/Inc/stm32g4xx_ll_exti.h **** #define LL_EXTI_MODE_IT                 ((uint8_t)0x00U) /*!< Interrupt Mode */
 200:Drivers/STM32G4xx_HAL_Driver/Inc/stm32g4xx_ll_exti.h **** #define LL_EXTI_MODE_EVENT              ((uint8_t)0x01U) /*!< Event Mode */
 201:Drivers/STM32G4xx_HAL_Driver/Inc/stm32g4xx_ll_exti.h **** #define LL_EXTI_MODE_IT_EVENT           ((uint8_t)0x02U) /*!< Interrupt & Event Mode */
 202:Drivers/STM32G4xx_HAL_Driver/Inc/stm32g4xx_ll_exti.h **** /**
 203:Drivers/STM32G4xx_HAL_Driver/Inc/stm32g4xx_ll_exti.h ****   * @}
 204:Drivers/STM32G4xx_HAL_Driver/Inc/stm32g4xx_ll_exti.h ****   */
 205:Drivers/STM32G4xx_HAL_Driver/Inc/stm32g4xx_ll_exti.h **** 
 206:Drivers/STM32G4xx_HAL_Driver/Inc/stm32g4xx_ll_exti.h **** /** @defgroup EXTI_LL_EC_TRIGGER Edge Trigger
 207:Drivers/STM32G4xx_HAL_Driver/Inc/stm32g4xx_ll_exti.h ****   * @{
 208:Drivers/STM32G4xx_HAL_Driver/Inc/stm32g4xx_ll_exti.h ****   */
 209:Drivers/STM32G4xx_HAL_Driver/Inc/stm32g4xx_ll_exti.h **** #define LL_EXTI_TRIGGER_NONE            ((uint8_t)0x00U) /*!< No Trigger Mode */
 210:Drivers/STM32G4xx_HAL_Driver/Inc/stm32g4xx_ll_exti.h **** #define LL_EXTI_TRIGGER_RISING          ((uint8_t)0x01U) /*!< Trigger Rising Mode */
 211:Drivers/STM32G4xx_HAL_Driver/Inc/stm32g4xx_ll_exti.h **** #define LL_EXTI_TRIGGER_FALLING         ((uint8_t)0x02U) /*!< Trigger Falling Mode */
 212:Drivers/STM32G4xx_HAL_Driver/Inc/stm32g4xx_ll_exti.h **** #define LL_EXTI_TRIGGER_RISING_FALLING  ((uint8_t)0x03U) /*!< Trigger Rising & Falling Mode */
 213:Drivers/STM32G4xx_HAL_Driver/Inc/stm32g4xx_ll_exti.h **** 
 214:Drivers/STM32G4xx_HAL_Driver/Inc/stm32g4xx_ll_exti.h **** /**
 215:Drivers/STM32G4xx_HAL_Driver/Inc/stm32g4xx_ll_exti.h ****   * @}
 216:Drivers/STM32G4xx_HAL_Driver/Inc/stm32g4xx_ll_exti.h ****   */
 217:Drivers/STM32G4xx_HAL_Driver/Inc/stm32g4xx_ll_exti.h **** 
 218:Drivers/STM32G4xx_HAL_Driver/Inc/stm32g4xx_ll_exti.h **** 
 219:Drivers/STM32G4xx_HAL_Driver/Inc/stm32g4xx_ll_exti.h **** #endif /*USE_FULL_LL_DRIVER*/
 220:Drivers/STM32G4xx_HAL_Driver/Inc/stm32g4xx_ll_exti.h **** 
 221:Drivers/STM32G4xx_HAL_Driver/Inc/stm32g4xx_ll_exti.h **** 
 222:Drivers/STM32G4xx_HAL_Driver/Inc/stm32g4xx_ll_exti.h **** /**
 223:Drivers/STM32G4xx_HAL_Driver/Inc/stm32g4xx_ll_exti.h ****   * @}
 224:Drivers/STM32G4xx_HAL_Driver/Inc/stm32g4xx_ll_exti.h ****   */
 225:Drivers/STM32G4xx_HAL_Driver/Inc/stm32g4xx_ll_exti.h **** 
 226:Drivers/STM32G4xx_HAL_Driver/Inc/stm32g4xx_ll_exti.h **** /* Exported macro ------------------------------------------------------------*/
 227:Drivers/STM32G4xx_HAL_Driver/Inc/stm32g4xx_ll_exti.h **** /** @defgroup EXTI_LL_Exported_Macros EXTI Exported Macros
 228:Drivers/STM32G4xx_HAL_Driver/Inc/stm32g4xx_ll_exti.h ****   * @{
 229:Drivers/STM32G4xx_HAL_Driver/Inc/stm32g4xx_ll_exti.h ****   */
 230:Drivers/STM32G4xx_HAL_Driver/Inc/stm32g4xx_ll_exti.h **** 
 231:Drivers/STM32G4xx_HAL_Driver/Inc/stm32g4xx_ll_exti.h **** /** @defgroup EXTI_LL_EM_WRITE_READ Common Write and read registers Macros
 232:Drivers/STM32G4xx_HAL_Driver/Inc/stm32g4xx_ll_exti.h ****   * @{
 233:Drivers/STM32G4xx_HAL_Driver/Inc/stm32g4xx_ll_exti.h ****   */
 234:Drivers/STM32G4xx_HAL_Driver/Inc/stm32g4xx_ll_exti.h **** 
 235:Drivers/STM32G4xx_HAL_Driver/Inc/stm32g4xx_ll_exti.h **** /**
 236:Drivers/STM32G4xx_HAL_Driver/Inc/stm32g4xx_ll_exti.h ****   * @brief  Write a value in EXTI register
 237:Drivers/STM32G4xx_HAL_Driver/Inc/stm32g4xx_ll_exti.h ****   * @param  __REG__ Register to be written
 238:Drivers/STM32G4xx_HAL_Driver/Inc/stm32g4xx_ll_exti.h ****   * @param  __VALUE__ Value to be written in the register
 239:Drivers/STM32G4xx_HAL_Driver/Inc/stm32g4xx_ll_exti.h ****   * @retval None
 240:Drivers/STM32G4xx_HAL_Driver/Inc/stm32g4xx_ll_exti.h ****   */
 241:Drivers/STM32G4xx_HAL_Driver/Inc/stm32g4xx_ll_exti.h **** #define LL_EXTI_WriteReg(__REG__, __VALUE__) WRITE_REG(EXTI->__REG__, (__VALUE__))
 242:Drivers/STM32G4xx_HAL_Driver/Inc/stm32g4xx_ll_exti.h **** 
 243:Drivers/STM32G4xx_HAL_Driver/Inc/stm32g4xx_ll_exti.h **** /**
 244:Drivers/STM32G4xx_HAL_Driver/Inc/stm32g4xx_ll_exti.h ****   * @brief  Read a value in EXTI register
 245:Drivers/STM32G4xx_HAL_Driver/Inc/stm32g4xx_ll_exti.h ****   * @param  __REG__ Register to be read
 246:Drivers/STM32G4xx_HAL_Driver/Inc/stm32g4xx_ll_exti.h ****   * @retval Register value
 247:Drivers/STM32G4xx_HAL_Driver/Inc/stm32g4xx_ll_exti.h ****   */
 248:Drivers/STM32G4xx_HAL_Driver/Inc/stm32g4xx_ll_exti.h **** #define LL_EXTI_ReadReg(__REG__) READ_REG(EXTI->__REG__)
 249:Drivers/STM32G4xx_HAL_Driver/Inc/stm32g4xx_ll_exti.h **** /**
 250:Drivers/STM32G4xx_HAL_Driver/Inc/stm32g4xx_ll_exti.h ****   * @}
 251:Drivers/STM32G4xx_HAL_Driver/Inc/stm32g4xx_ll_exti.h ****   */
 252:Drivers/STM32G4xx_HAL_Driver/Inc/stm32g4xx_ll_exti.h **** 
ARM GAS  C:\Users\T1\AppData\Local\Temp\cciVZ2by.s 			page 21


 253:Drivers/STM32G4xx_HAL_Driver/Inc/stm32g4xx_ll_exti.h **** 
 254:Drivers/STM32G4xx_HAL_Driver/Inc/stm32g4xx_ll_exti.h **** /**
 255:Drivers/STM32G4xx_HAL_Driver/Inc/stm32g4xx_ll_exti.h ****   * @}
 256:Drivers/STM32G4xx_HAL_Driver/Inc/stm32g4xx_ll_exti.h ****   */
 257:Drivers/STM32G4xx_HAL_Driver/Inc/stm32g4xx_ll_exti.h **** 
 258:Drivers/STM32G4xx_HAL_Driver/Inc/stm32g4xx_ll_exti.h **** 
 259:Drivers/STM32G4xx_HAL_Driver/Inc/stm32g4xx_ll_exti.h **** 
 260:Drivers/STM32G4xx_HAL_Driver/Inc/stm32g4xx_ll_exti.h **** /* Exported functions --------------------------------------------------------*/
 261:Drivers/STM32G4xx_HAL_Driver/Inc/stm32g4xx_ll_exti.h **** /** @defgroup EXTI_LL_Exported_Functions EXTI Exported Functions
 262:Drivers/STM32G4xx_HAL_Driver/Inc/stm32g4xx_ll_exti.h ****   * @{
 263:Drivers/STM32G4xx_HAL_Driver/Inc/stm32g4xx_ll_exti.h ****   */
 264:Drivers/STM32G4xx_HAL_Driver/Inc/stm32g4xx_ll_exti.h **** /** @defgroup EXTI_LL_EF_IT_Management IT_Management
 265:Drivers/STM32G4xx_HAL_Driver/Inc/stm32g4xx_ll_exti.h ****   * @{
 266:Drivers/STM32G4xx_HAL_Driver/Inc/stm32g4xx_ll_exti.h ****   */
 267:Drivers/STM32G4xx_HAL_Driver/Inc/stm32g4xx_ll_exti.h **** 
 268:Drivers/STM32G4xx_HAL_Driver/Inc/stm32g4xx_ll_exti.h **** /**
 269:Drivers/STM32G4xx_HAL_Driver/Inc/stm32g4xx_ll_exti.h ****   * @brief  Enable ExtiLine Interrupt request for Lines in range 0 to 31
 270:Drivers/STM32G4xx_HAL_Driver/Inc/stm32g4xx_ll_exti.h ****   * @note The reset value for the direct or internal lines (see RM)
 271:Drivers/STM32G4xx_HAL_Driver/Inc/stm32g4xx_ll_exti.h ****   *       is set to 1 in order to enable the interrupt by default.
 272:Drivers/STM32G4xx_HAL_Driver/Inc/stm32g4xx_ll_exti.h ****   *       Bits are set automatically at Power on.
 273:Drivers/STM32G4xx_HAL_Driver/Inc/stm32g4xx_ll_exti.h ****   * @rmtoll IMR1         IMx           LL_EXTI_EnableIT_0_31
 274:Drivers/STM32G4xx_HAL_Driver/Inc/stm32g4xx_ll_exti.h ****   * @param  ExtiLine This parameter can be one of the following values:
 275:Drivers/STM32G4xx_HAL_Driver/Inc/stm32g4xx_ll_exti.h ****   *         @arg @ref LL_EXTI_LINE_0
 276:Drivers/STM32G4xx_HAL_Driver/Inc/stm32g4xx_ll_exti.h ****   *         @arg @ref LL_EXTI_LINE_1
 277:Drivers/STM32G4xx_HAL_Driver/Inc/stm32g4xx_ll_exti.h ****   *         @arg @ref LL_EXTI_LINE_2
 278:Drivers/STM32G4xx_HAL_Driver/Inc/stm32g4xx_ll_exti.h ****   *         @arg @ref LL_EXTI_LINE_3
 279:Drivers/STM32G4xx_HAL_Driver/Inc/stm32g4xx_ll_exti.h ****   *         @arg @ref LL_EXTI_LINE_4
 280:Drivers/STM32G4xx_HAL_Driver/Inc/stm32g4xx_ll_exti.h ****   *         @arg @ref LL_EXTI_LINE_5
 281:Drivers/STM32G4xx_HAL_Driver/Inc/stm32g4xx_ll_exti.h ****   *         @arg @ref LL_EXTI_LINE_6
 282:Drivers/STM32G4xx_HAL_Driver/Inc/stm32g4xx_ll_exti.h ****   *         @arg @ref LL_EXTI_LINE_7
 283:Drivers/STM32G4xx_HAL_Driver/Inc/stm32g4xx_ll_exti.h ****   *         @arg @ref LL_EXTI_LINE_8
 284:Drivers/STM32G4xx_HAL_Driver/Inc/stm32g4xx_ll_exti.h ****   *         @arg @ref LL_EXTI_LINE_9
 285:Drivers/STM32G4xx_HAL_Driver/Inc/stm32g4xx_ll_exti.h ****   *         @arg @ref LL_EXTI_LINE_10
 286:Drivers/STM32G4xx_HAL_Driver/Inc/stm32g4xx_ll_exti.h ****   *         @arg @ref LL_EXTI_LINE_11
 287:Drivers/STM32G4xx_HAL_Driver/Inc/stm32g4xx_ll_exti.h ****   *         @arg @ref LL_EXTI_LINE_12
 288:Drivers/STM32G4xx_HAL_Driver/Inc/stm32g4xx_ll_exti.h ****   *         @arg @ref LL_EXTI_LINE_13
 289:Drivers/STM32G4xx_HAL_Driver/Inc/stm32g4xx_ll_exti.h ****   *         @arg @ref LL_EXTI_LINE_14
 290:Drivers/STM32G4xx_HAL_Driver/Inc/stm32g4xx_ll_exti.h ****   *         @arg @ref LL_EXTI_LINE_15
 291:Drivers/STM32G4xx_HAL_Driver/Inc/stm32g4xx_ll_exti.h ****   *         @arg @ref LL_EXTI_LINE_16
 292:Drivers/STM32G4xx_HAL_Driver/Inc/stm32g4xx_ll_exti.h ****   *         @arg @ref LL_EXTI_LINE_17
 293:Drivers/STM32G4xx_HAL_Driver/Inc/stm32g4xx_ll_exti.h ****   *         @arg @ref LL_EXTI_LINE_18
 294:Drivers/STM32G4xx_HAL_Driver/Inc/stm32g4xx_ll_exti.h ****   *         @arg @ref LL_EXTI_LINE_19
 295:Drivers/STM32G4xx_HAL_Driver/Inc/stm32g4xx_ll_exti.h ****   *         @arg @ref LL_EXTI_LINE_20
 296:Drivers/STM32G4xx_HAL_Driver/Inc/stm32g4xx_ll_exti.h ****   *         @arg @ref LL_EXTI_LINE_21
 297:Drivers/STM32G4xx_HAL_Driver/Inc/stm32g4xx_ll_exti.h ****   *         @arg @ref LL_EXTI_LINE_22
 298:Drivers/STM32G4xx_HAL_Driver/Inc/stm32g4xx_ll_exti.h ****   *         @arg @ref LL_EXTI_LINE_23
 299:Drivers/STM32G4xx_HAL_Driver/Inc/stm32g4xx_ll_exti.h ****   *         @arg @ref LL_EXTI_LINE_24
 300:Drivers/STM32G4xx_HAL_Driver/Inc/stm32g4xx_ll_exti.h ****   *         @arg @ref LL_EXTI_LINE_25
 301:Drivers/STM32G4xx_HAL_Driver/Inc/stm32g4xx_ll_exti.h ****   *         @arg @ref LL_EXTI_LINE_26
 302:Drivers/STM32G4xx_HAL_Driver/Inc/stm32g4xx_ll_exti.h ****   *         @arg @ref LL_EXTI_LINE_27
 303:Drivers/STM32G4xx_HAL_Driver/Inc/stm32g4xx_ll_exti.h ****   *         @arg @ref LL_EXTI_LINE_28
 304:Drivers/STM32G4xx_HAL_Driver/Inc/stm32g4xx_ll_exti.h ****   *         @arg @ref LL_EXTI_LINE_29
 305:Drivers/STM32G4xx_HAL_Driver/Inc/stm32g4xx_ll_exti.h ****   *         @arg @ref LL_EXTI_LINE_30
 306:Drivers/STM32G4xx_HAL_Driver/Inc/stm32g4xx_ll_exti.h ****   *         @arg @ref LL_EXTI_LINE_31 (*)
 307:Drivers/STM32G4xx_HAL_Driver/Inc/stm32g4xx_ll_exti.h ****   *         @arg @ref LL_EXTI_LINE_ALL_0_31
 308:Drivers/STM32G4xx_HAL_Driver/Inc/stm32g4xx_ll_exti.h ****   * @note   (*): Available in some devices
 309:Drivers/STM32G4xx_HAL_Driver/Inc/stm32g4xx_ll_exti.h ****   * @note   Please check each device line mapping for EXTI Line availability
ARM GAS  C:\Users\T1\AppData\Local\Temp\cciVZ2by.s 			page 22


 310:Drivers/STM32G4xx_HAL_Driver/Inc/stm32g4xx_ll_exti.h ****   * @retval None
 311:Drivers/STM32G4xx_HAL_Driver/Inc/stm32g4xx_ll_exti.h ****   */
 312:Drivers/STM32G4xx_HAL_Driver/Inc/stm32g4xx_ll_exti.h **** __STATIC_INLINE void LL_EXTI_EnableIT_0_31(uint32_t ExtiLine)
 313:Drivers/STM32G4xx_HAL_Driver/Inc/stm32g4xx_ll_exti.h **** {
 314:Drivers/STM32G4xx_HAL_Driver/Inc/stm32g4xx_ll_exti.h ****   SET_BIT(EXTI->IMR1, ExtiLine);
 315:Drivers/STM32G4xx_HAL_Driver/Inc/stm32g4xx_ll_exti.h **** }
 316:Drivers/STM32G4xx_HAL_Driver/Inc/stm32g4xx_ll_exti.h **** /**
 317:Drivers/STM32G4xx_HAL_Driver/Inc/stm32g4xx_ll_exti.h ****   * @brief  Enable ExtiLine Interrupt request for Lines in range 32 to 63
 318:Drivers/STM32G4xx_HAL_Driver/Inc/stm32g4xx_ll_exti.h ****   * @note The reset value for the direct lines (lines from 32 to 34, line
 319:Drivers/STM32G4xx_HAL_Driver/Inc/stm32g4xx_ll_exti.h ****   *       39) is set to 1 in order to enable the interrupt by default.
 320:Drivers/STM32G4xx_HAL_Driver/Inc/stm32g4xx_ll_exti.h ****   *       Bits are set automatically at Power on.
 321:Drivers/STM32G4xx_HAL_Driver/Inc/stm32g4xx_ll_exti.h ****   * @rmtoll IMR2         IMx           LL_EXTI_EnableIT_32_63
 322:Drivers/STM32G4xx_HAL_Driver/Inc/stm32g4xx_ll_exti.h ****   * @param  ExtiLine This parameter can be one of the following values:
 323:Drivers/STM32G4xx_HAL_Driver/Inc/stm32g4xx_ll_exti.h ****   *         @arg @ref LL_EXTI_LINE_32 (*)
 324:Drivers/STM32G4xx_HAL_Driver/Inc/stm32g4xx_ll_exti.h ****   *         @arg @ref LL_EXTI_LINE_33 (*)
 325:Drivers/STM32G4xx_HAL_Driver/Inc/stm32g4xx_ll_exti.h ****   *         @arg @ref LL_EXTI_LINE_34
 326:Drivers/STM32G4xx_HAL_Driver/Inc/stm32g4xx_ll_exti.h ****   *         @arg @ref LL_EXTI_LINE_35 (*)
 327:Drivers/STM32G4xx_HAL_Driver/Inc/stm32g4xx_ll_exti.h ****   *         @arg @ref LL_EXTI_LINE_36
 328:Drivers/STM32G4xx_HAL_Driver/Inc/stm32g4xx_ll_exti.h ****   *         @arg @ref LL_EXTI_LINE_37
 329:Drivers/STM32G4xx_HAL_Driver/Inc/stm32g4xx_ll_exti.h ****   *         @arg @ref LL_EXTI_LINE_38
 330:Drivers/STM32G4xx_HAL_Driver/Inc/stm32g4xx_ll_exti.h ****   *         @arg @ref LL_EXTI_LINE_39
 331:Drivers/STM32G4xx_HAL_Driver/Inc/stm32g4xx_ll_exti.h ****   *         @arg @ref LL_EXTI_LINE_40
 332:Drivers/STM32G4xx_HAL_Driver/Inc/stm32g4xx_ll_exti.h ****   *         @arg @ref LL_EXTI_LINE_41
 333:Drivers/STM32G4xx_HAL_Driver/Inc/stm32g4xx_ll_exti.h ****   *         @arg @ref LL_EXTI_LINE_42(*)
 334:Drivers/STM32G4xx_HAL_Driver/Inc/stm32g4xx_ll_exti.h ****   *         @arg @ref LL_EXTI_LINE_ALL_32_63
 335:Drivers/STM32G4xx_HAL_Driver/Inc/stm32g4xx_ll_exti.h ****   * @note   (*): Available in some devices
 336:Drivers/STM32G4xx_HAL_Driver/Inc/stm32g4xx_ll_exti.h ****   * @retval None
 337:Drivers/STM32G4xx_HAL_Driver/Inc/stm32g4xx_ll_exti.h ****   */
 338:Drivers/STM32G4xx_HAL_Driver/Inc/stm32g4xx_ll_exti.h **** __STATIC_INLINE void LL_EXTI_EnableIT_32_63(uint32_t ExtiLine)
 339:Drivers/STM32G4xx_HAL_Driver/Inc/stm32g4xx_ll_exti.h **** {
 340:Drivers/STM32G4xx_HAL_Driver/Inc/stm32g4xx_ll_exti.h ****   SET_BIT(EXTI->IMR2, ExtiLine);
 341:Drivers/STM32G4xx_HAL_Driver/Inc/stm32g4xx_ll_exti.h **** }
 342:Drivers/STM32G4xx_HAL_Driver/Inc/stm32g4xx_ll_exti.h **** 
 343:Drivers/STM32G4xx_HAL_Driver/Inc/stm32g4xx_ll_exti.h **** /**
 344:Drivers/STM32G4xx_HAL_Driver/Inc/stm32g4xx_ll_exti.h ****   * @brief  Disable ExtiLine Interrupt request for Lines in range 0 to 31
 345:Drivers/STM32G4xx_HAL_Driver/Inc/stm32g4xx_ll_exti.h ****   * @note The reset value for the direct or internal lines (see RM)
 346:Drivers/STM32G4xx_HAL_Driver/Inc/stm32g4xx_ll_exti.h ****   *       is set to 1 in order to enable the interrupt by default.
 347:Drivers/STM32G4xx_HAL_Driver/Inc/stm32g4xx_ll_exti.h ****   *       Bits are set automatically at Power on.
 348:Drivers/STM32G4xx_HAL_Driver/Inc/stm32g4xx_ll_exti.h ****   * @rmtoll IMR1         IMx           LL_EXTI_DisableIT_0_31
 349:Drivers/STM32G4xx_HAL_Driver/Inc/stm32g4xx_ll_exti.h ****   * @param  ExtiLine This parameter can be one of the following values:
 350:Drivers/STM32G4xx_HAL_Driver/Inc/stm32g4xx_ll_exti.h ****   *         @arg @ref LL_EXTI_LINE_0
 351:Drivers/STM32G4xx_HAL_Driver/Inc/stm32g4xx_ll_exti.h ****   *         @arg @ref LL_EXTI_LINE_1
 352:Drivers/STM32G4xx_HAL_Driver/Inc/stm32g4xx_ll_exti.h ****   *         @arg @ref LL_EXTI_LINE_2
 353:Drivers/STM32G4xx_HAL_Driver/Inc/stm32g4xx_ll_exti.h ****   *         @arg @ref LL_EXTI_LINE_3
 354:Drivers/STM32G4xx_HAL_Driver/Inc/stm32g4xx_ll_exti.h ****   *         @arg @ref LL_EXTI_LINE_4
 355:Drivers/STM32G4xx_HAL_Driver/Inc/stm32g4xx_ll_exti.h ****   *         @arg @ref LL_EXTI_LINE_5
 356:Drivers/STM32G4xx_HAL_Driver/Inc/stm32g4xx_ll_exti.h ****   *         @arg @ref LL_EXTI_LINE_6
 357:Drivers/STM32G4xx_HAL_Driver/Inc/stm32g4xx_ll_exti.h ****   *         @arg @ref LL_EXTI_LINE_7
 358:Drivers/STM32G4xx_HAL_Driver/Inc/stm32g4xx_ll_exti.h ****   *         @arg @ref LL_EXTI_LINE_8
 359:Drivers/STM32G4xx_HAL_Driver/Inc/stm32g4xx_ll_exti.h ****   *         @arg @ref LL_EXTI_LINE_9
 360:Drivers/STM32G4xx_HAL_Driver/Inc/stm32g4xx_ll_exti.h ****   *         @arg @ref LL_EXTI_LINE_10
 361:Drivers/STM32G4xx_HAL_Driver/Inc/stm32g4xx_ll_exti.h ****   *         @arg @ref LL_EXTI_LINE_11
 362:Drivers/STM32G4xx_HAL_Driver/Inc/stm32g4xx_ll_exti.h ****   *         @arg @ref LL_EXTI_LINE_12
 363:Drivers/STM32G4xx_HAL_Driver/Inc/stm32g4xx_ll_exti.h ****   *         @arg @ref LL_EXTI_LINE_13
 364:Drivers/STM32G4xx_HAL_Driver/Inc/stm32g4xx_ll_exti.h ****   *         @arg @ref LL_EXTI_LINE_14
 365:Drivers/STM32G4xx_HAL_Driver/Inc/stm32g4xx_ll_exti.h ****   *         @arg @ref LL_EXTI_LINE_15
 366:Drivers/STM32G4xx_HAL_Driver/Inc/stm32g4xx_ll_exti.h ****   *         @arg @ref LL_EXTI_LINE_16
ARM GAS  C:\Users\T1\AppData\Local\Temp\cciVZ2by.s 			page 23


 367:Drivers/STM32G4xx_HAL_Driver/Inc/stm32g4xx_ll_exti.h ****   *         @arg @ref LL_EXTI_LINE_17
 368:Drivers/STM32G4xx_HAL_Driver/Inc/stm32g4xx_ll_exti.h ****   *         @arg @ref LL_EXTI_LINE_18
 369:Drivers/STM32G4xx_HAL_Driver/Inc/stm32g4xx_ll_exti.h ****   *         @arg @ref LL_EXTI_LINE_19
 370:Drivers/STM32G4xx_HAL_Driver/Inc/stm32g4xx_ll_exti.h ****   *         @arg @ref LL_EXTI_LINE_20
 371:Drivers/STM32G4xx_HAL_Driver/Inc/stm32g4xx_ll_exti.h ****   *         @arg @ref LL_EXTI_LINE_21
 372:Drivers/STM32G4xx_HAL_Driver/Inc/stm32g4xx_ll_exti.h ****   *         @arg @ref LL_EXTI_LINE_22
 373:Drivers/STM32G4xx_HAL_Driver/Inc/stm32g4xx_ll_exti.h ****   *         @arg @ref LL_EXTI_LINE_23
 374:Drivers/STM32G4xx_HAL_Driver/Inc/stm32g4xx_ll_exti.h ****   *         @arg @ref LL_EXTI_LINE_24
 375:Drivers/STM32G4xx_HAL_Driver/Inc/stm32g4xx_ll_exti.h ****   *         @arg @ref LL_EXTI_LINE_25
 376:Drivers/STM32G4xx_HAL_Driver/Inc/stm32g4xx_ll_exti.h ****   *         @arg @ref LL_EXTI_LINE_26
 377:Drivers/STM32G4xx_HAL_Driver/Inc/stm32g4xx_ll_exti.h ****   *         @arg @ref LL_EXTI_LINE_27
 378:Drivers/STM32G4xx_HAL_Driver/Inc/stm32g4xx_ll_exti.h ****   *         @arg @ref LL_EXTI_LINE_28
 379:Drivers/STM32G4xx_HAL_Driver/Inc/stm32g4xx_ll_exti.h ****   *         @arg @ref LL_EXTI_LINE_29
 380:Drivers/STM32G4xx_HAL_Driver/Inc/stm32g4xx_ll_exti.h ****   *         @arg @ref LL_EXTI_LINE_30
 381:Drivers/STM32G4xx_HAL_Driver/Inc/stm32g4xx_ll_exti.h ****   *         @arg @ref LL_EXTI_LINE_31
 382:Drivers/STM32G4xx_HAL_Driver/Inc/stm32g4xx_ll_exti.h ****   *         @arg @ref LL_EXTI_LINE_ALL_0_31 (*)
 383:Drivers/STM32G4xx_HAL_Driver/Inc/stm32g4xx_ll_exti.h ****   * @note   (*): Available in some devices
 384:Drivers/STM32G4xx_HAL_Driver/Inc/stm32g4xx_ll_exti.h ****   * @note   Please check each device line mapping for EXTI Line availability
 385:Drivers/STM32G4xx_HAL_Driver/Inc/stm32g4xx_ll_exti.h ****   * @retval None
 386:Drivers/STM32G4xx_HAL_Driver/Inc/stm32g4xx_ll_exti.h ****   */
 387:Drivers/STM32G4xx_HAL_Driver/Inc/stm32g4xx_ll_exti.h **** __STATIC_INLINE void LL_EXTI_DisableIT_0_31(uint32_t ExtiLine)
 388:Drivers/STM32G4xx_HAL_Driver/Inc/stm32g4xx_ll_exti.h **** {
 389:Drivers/STM32G4xx_HAL_Driver/Inc/stm32g4xx_ll_exti.h ****   CLEAR_BIT(EXTI->IMR1, ExtiLine);
 390:Drivers/STM32G4xx_HAL_Driver/Inc/stm32g4xx_ll_exti.h **** }
 391:Drivers/STM32G4xx_HAL_Driver/Inc/stm32g4xx_ll_exti.h **** 
 392:Drivers/STM32G4xx_HAL_Driver/Inc/stm32g4xx_ll_exti.h **** /**
 393:Drivers/STM32G4xx_HAL_Driver/Inc/stm32g4xx_ll_exti.h ****   * @brief  Disable ExtiLine Interrupt request for Lines in range 32 to 63
 394:Drivers/STM32G4xx_HAL_Driver/Inc/stm32g4xx_ll_exti.h ****   * @note The reset value for the direct lines (lines from 32 to 34, line
 395:Drivers/STM32G4xx_HAL_Driver/Inc/stm32g4xx_ll_exti.h ****   *       39) is set to 1 in order to enable the interrupt by default.
 396:Drivers/STM32G4xx_HAL_Driver/Inc/stm32g4xx_ll_exti.h ****   *       Bits are set automatically at Power on.
 397:Drivers/STM32G4xx_HAL_Driver/Inc/stm32g4xx_ll_exti.h ****   * @rmtoll IMR2         IMx           LL_EXTI_DisableIT_32_63
 398:Drivers/STM32G4xx_HAL_Driver/Inc/stm32g4xx_ll_exti.h ****   * @param  ExtiLine This parameter can be one of the following values:
 399:Drivers/STM32G4xx_HAL_Driver/Inc/stm32g4xx_ll_exti.h ****   *         @arg @ref LL_EXTI_LINE_32 (*)
 400:Drivers/STM32G4xx_HAL_Driver/Inc/stm32g4xx_ll_exti.h ****   *         @arg @ref LL_EXTI_LINE_33 (*)
 401:Drivers/STM32G4xx_HAL_Driver/Inc/stm32g4xx_ll_exti.h ****   *         @arg @ref LL_EXTI_LINE_34
 402:Drivers/STM32G4xx_HAL_Driver/Inc/stm32g4xx_ll_exti.h ****   *         @arg @ref LL_EXTI_LINE_35 (*)
 403:Drivers/STM32G4xx_HAL_Driver/Inc/stm32g4xx_ll_exti.h ****   *         @arg @ref LL_EXTI_LINE_36
 404:Drivers/STM32G4xx_HAL_Driver/Inc/stm32g4xx_ll_exti.h ****   *         @arg @ref LL_EXTI_LINE_37
 405:Drivers/STM32G4xx_HAL_Driver/Inc/stm32g4xx_ll_exti.h ****   *         @arg @ref LL_EXTI_LINE_38
 406:Drivers/STM32G4xx_HAL_Driver/Inc/stm32g4xx_ll_exti.h ****   *         @arg @ref LL_EXTI_LINE_39
 407:Drivers/STM32G4xx_HAL_Driver/Inc/stm32g4xx_ll_exti.h ****   *         @arg @ref LL_EXTI_LINE_40
 408:Drivers/STM32G4xx_HAL_Driver/Inc/stm32g4xx_ll_exti.h ****   *         @arg @ref LL_EXTI_LINE_41
 409:Drivers/STM32G4xx_HAL_Driver/Inc/stm32g4xx_ll_exti.h ****   *         @arg @ref LL_EXTI_LINE_42(*)
 410:Drivers/STM32G4xx_HAL_Driver/Inc/stm32g4xx_ll_exti.h ****   *         @arg @ref LL_EXTI_LINE_ALL_32_63
 411:Drivers/STM32G4xx_HAL_Driver/Inc/stm32g4xx_ll_exti.h ****   * @note   (*): Available in some devices
 412:Drivers/STM32G4xx_HAL_Driver/Inc/stm32g4xx_ll_exti.h ****   * @retval None
 413:Drivers/STM32G4xx_HAL_Driver/Inc/stm32g4xx_ll_exti.h ****   */
 414:Drivers/STM32G4xx_HAL_Driver/Inc/stm32g4xx_ll_exti.h **** __STATIC_INLINE void LL_EXTI_DisableIT_32_63(uint32_t ExtiLine)
 415:Drivers/STM32G4xx_HAL_Driver/Inc/stm32g4xx_ll_exti.h **** {
 416:Drivers/STM32G4xx_HAL_Driver/Inc/stm32g4xx_ll_exti.h ****   CLEAR_BIT(EXTI->IMR2, ExtiLine);
 417:Drivers/STM32G4xx_HAL_Driver/Inc/stm32g4xx_ll_exti.h **** }
 418:Drivers/STM32G4xx_HAL_Driver/Inc/stm32g4xx_ll_exti.h **** 
 419:Drivers/STM32G4xx_HAL_Driver/Inc/stm32g4xx_ll_exti.h **** /**
 420:Drivers/STM32G4xx_HAL_Driver/Inc/stm32g4xx_ll_exti.h ****   * @brief  Indicate if ExtiLine Interrupt request is enabled for Lines in range 0 to 31
 421:Drivers/STM32G4xx_HAL_Driver/Inc/stm32g4xx_ll_exti.h ****   * @note The reset value for the direct or internal lines (see RM)
 422:Drivers/STM32G4xx_HAL_Driver/Inc/stm32g4xx_ll_exti.h ****   *       is set to 1 in order to enable the interrupt by default.
 423:Drivers/STM32G4xx_HAL_Driver/Inc/stm32g4xx_ll_exti.h ****   *       Bits are set automatically at Power on.
ARM GAS  C:\Users\T1\AppData\Local\Temp\cciVZ2by.s 			page 24


 424:Drivers/STM32G4xx_HAL_Driver/Inc/stm32g4xx_ll_exti.h ****   * @rmtoll IMR1         IMx           LL_EXTI_IsEnabledIT_0_31
 425:Drivers/STM32G4xx_HAL_Driver/Inc/stm32g4xx_ll_exti.h ****   * @param  ExtiLine This parameter can be one of the following values:
 426:Drivers/STM32G4xx_HAL_Driver/Inc/stm32g4xx_ll_exti.h ****   *         @arg @ref LL_EXTI_LINE_0
 427:Drivers/STM32G4xx_HAL_Driver/Inc/stm32g4xx_ll_exti.h ****   *         @arg @ref LL_EXTI_LINE_1
 428:Drivers/STM32G4xx_HAL_Driver/Inc/stm32g4xx_ll_exti.h ****   *         @arg @ref LL_EXTI_LINE_2
 429:Drivers/STM32G4xx_HAL_Driver/Inc/stm32g4xx_ll_exti.h ****   *         @arg @ref LL_EXTI_LINE_3
 430:Drivers/STM32G4xx_HAL_Driver/Inc/stm32g4xx_ll_exti.h ****   *         @arg @ref LL_EXTI_LINE_4
 431:Drivers/STM32G4xx_HAL_Driver/Inc/stm32g4xx_ll_exti.h ****   *         @arg @ref LL_EXTI_LINE_5
 432:Drivers/STM32G4xx_HAL_Driver/Inc/stm32g4xx_ll_exti.h ****   *         @arg @ref LL_EXTI_LINE_6
 433:Drivers/STM32G4xx_HAL_Driver/Inc/stm32g4xx_ll_exti.h ****   *         @arg @ref LL_EXTI_LINE_7
 434:Drivers/STM32G4xx_HAL_Driver/Inc/stm32g4xx_ll_exti.h ****   *         @arg @ref LL_EXTI_LINE_8
 435:Drivers/STM32G4xx_HAL_Driver/Inc/stm32g4xx_ll_exti.h ****   *         @arg @ref LL_EXTI_LINE_9
 436:Drivers/STM32G4xx_HAL_Driver/Inc/stm32g4xx_ll_exti.h ****   *         @arg @ref LL_EXTI_LINE_10
 437:Drivers/STM32G4xx_HAL_Driver/Inc/stm32g4xx_ll_exti.h ****   *         @arg @ref LL_EXTI_LINE_11
 438:Drivers/STM32G4xx_HAL_Driver/Inc/stm32g4xx_ll_exti.h ****   *         @arg @ref LL_EXTI_LINE_12
 439:Drivers/STM32G4xx_HAL_Driver/Inc/stm32g4xx_ll_exti.h ****   *         @arg @ref LL_EXTI_LINE_13
 440:Drivers/STM32G4xx_HAL_Driver/Inc/stm32g4xx_ll_exti.h ****   *         @arg @ref LL_EXTI_LINE_14
 441:Drivers/STM32G4xx_HAL_Driver/Inc/stm32g4xx_ll_exti.h ****   *         @arg @ref LL_EXTI_LINE_15
 442:Drivers/STM32G4xx_HAL_Driver/Inc/stm32g4xx_ll_exti.h ****   *         @arg @ref LL_EXTI_LINE_16
 443:Drivers/STM32G4xx_HAL_Driver/Inc/stm32g4xx_ll_exti.h ****   *         @arg @ref LL_EXTI_LINE_17
 444:Drivers/STM32G4xx_HAL_Driver/Inc/stm32g4xx_ll_exti.h ****   *         @arg @ref LL_EXTI_LINE_18
 445:Drivers/STM32G4xx_HAL_Driver/Inc/stm32g4xx_ll_exti.h ****   *         @arg @ref LL_EXTI_LINE_19
 446:Drivers/STM32G4xx_HAL_Driver/Inc/stm32g4xx_ll_exti.h ****   *         @arg @ref LL_EXTI_LINE_20
 447:Drivers/STM32G4xx_HAL_Driver/Inc/stm32g4xx_ll_exti.h ****   *         @arg @ref LL_EXTI_LINE_21
 448:Drivers/STM32G4xx_HAL_Driver/Inc/stm32g4xx_ll_exti.h ****   *         @arg @ref LL_EXTI_LINE_22
 449:Drivers/STM32G4xx_HAL_Driver/Inc/stm32g4xx_ll_exti.h ****   *         @arg @ref LL_EXTI_LINE_23
 450:Drivers/STM32G4xx_HAL_Driver/Inc/stm32g4xx_ll_exti.h ****   *         @arg @ref LL_EXTI_LINE_24
 451:Drivers/STM32G4xx_HAL_Driver/Inc/stm32g4xx_ll_exti.h ****   *         @arg @ref LL_EXTI_LINE_25
 452:Drivers/STM32G4xx_HAL_Driver/Inc/stm32g4xx_ll_exti.h ****   *         @arg @ref LL_EXTI_LINE_26
 453:Drivers/STM32G4xx_HAL_Driver/Inc/stm32g4xx_ll_exti.h ****   *         @arg @ref LL_EXTI_LINE_27
 454:Drivers/STM32G4xx_HAL_Driver/Inc/stm32g4xx_ll_exti.h ****   *         @arg @ref LL_EXTI_LINE_28
 455:Drivers/STM32G4xx_HAL_Driver/Inc/stm32g4xx_ll_exti.h ****   *         @arg @ref LL_EXTI_LINE_29
 456:Drivers/STM32G4xx_HAL_Driver/Inc/stm32g4xx_ll_exti.h ****   *         @arg @ref LL_EXTI_LINE_30
 457:Drivers/STM32G4xx_HAL_Driver/Inc/stm32g4xx_ll_exti.h ****   *         @arg @ref LL_EXTI_LINE_31 (*)
 458:Drivers/STM32G4xx_HAL_Driver/Inc/stm32g4xx_ll_exti.h ****   *         @arg @ref LL_EXTI_LINE_ALL_0_31
 459:Drivers/STM32G4xx_HAL_Driver/Inc/stm32g4xx_ll_exti.h ****   * @note   (*): Available in some devices
 460:Drivers/STM32G4xx_HAL_Driver/Inc/stm32g4xx_ll_exti.h ****   * @note   Please check each device line mapping for EXTI Line availability
 461:Drivers/STM32G4xx_HAL_Driver/Inc/stm32g4xx_ll_exti.h ****   * @retval State of bit (1 or 0).
 462:Drivers/STM32G4xx_HAL_Driver/Inc/stm32g4xx_ll_exti.h ****   */
 463:Drivers/STM32G4xx_HAL_Driver/Inc/stm32g4xx_ll_exti.h **** __STATIC_INLINE uint32_t LL_EXTI_IsEnabledIT_0_31(uint32_t ExtiLine)
 464:Drivers/STM32G4xx_HAL_Driver/Inc/stm32g4xx_ll_exti.h **** {
 465:Drivers/STM32G4xx_HAL_Driver/Inc/stm32g4xx_ll_exti.h ****   return ((READ_BIT(EXTI->IMR1, ExtiLine) == (ExtiLine)) ? 1UL : 0UL);
 466:Drivers/STM32G4xx_HAL_Driver/Inc/stm32g4xx_ll_exti.h **** }
 467:Drivers/STM32G4xx_HAL_Driver/Inc/stm32g4xx_ll_exti.h **** 
 468:Drivers/STM32G4xx_HAL_Driver/Inc/stm32g4xx_ll_exti.h **** /**
 469:Drivers/STM32G4xx_HAL_Driver/Inc/stm32g4xx_ll_exti.h ****   * @brief  Indicate if ExtiLine Interrupt request is enabled for Lines in range 32 to 63
 470:Drivers/STM32G4xx_HAL_Driver/Inc/stm32g4xx_ll_exti.h ****   * @note The reset value for the direct lines (lines from 32 to 34, line
 471:Drivers/STM32G4xx_HAL_Driver/Inc/stm32g4xx_ll_exti.h ****   *       39) is set to 1 in order to enable the interrupt by default.
 472:Drivers/STM32G4xx_HAL_Driver/Inc/stm32g4xx_ll_exti.h ****   *       Bits are set automatically at Power on.
 473:Drivers/STM32G4xx_HAL_Driver/Inc/stm32g4xx_ll_exti.h ****   * @rmtoll IMR2         IMx           LL_EXTI_IsEnabledIT_32_63
 474:Drivers/STM32G4xx_HAL_Driver/Inc/stm32g4xx_ll_exti.h ****   * @param  ExtiLine This parameter can be one of the following values:
 475:Drivers/STM32G4xx_HAL_Driver/Inc/stm32g4xx_ll_exti.h ****   *         @arg @ref LL_EXTI_LINE_32 (*)
 476:Drivers/STM32G4xx_HAL_Driver/Inc/stm32g4xx_ll_exti.h ****   *         @arg @ref LL_EXTI_LINE_33 (*)
 477:Drivers/STM32G4xx_HAL_Driver/Inc/stm32g4xx_ll_exti.h ****   *         @arg @ref LL_EXTI_LINE_34
 478:Drivers/STM32G4xx_HAL_Driver/Inc/stm32g4xx_ll_exti.h ****   *         @arg @ref LL_EXTI_LINE_35 (*)
 479:Drivers/STM32G4xx_HAL_Driver/Inc/stm32g4xx_ll_exti.h ****   *         @arg @ref LL_EXTI_LINE_36
 480:Drivers/STM32G4xx_HAL_Driver/Inc/stm32g4xx_ll_exti.h ****   *         @arg @ref LL_EXTI_LINE_37
ARM GAS  C:\Users\T1\AppData\Local\Temp\cciVZ2by.s 			page 25


 481:Drivers/STM32G4xx_HAL_Driver/Inc/stm32g4xx_ll_exti.h ****   *         @arg @ref LL_EXTI_LINE_38
 482:Drivers/STM32G4xx_HAL_Driver/Inc/stm32g4xx_ll_exti.h ****   *         @arg @ref LL_EXTI_LINE_39
 483:Drivers/STM32G4xx_HAL_Driver/Inc/stm32g4xx_ll_exti.h ****   *         @arg @ref LL_EXTI_LINE_40
 484:Drivers/STM32G4xx_HAL_Driver/Inc/stm32g4xx_ll_exti.h ****   *         @arg @ref LL_EXTI_LINE_41
 485:Drivers/STM32G4xx_HAL_Driver/Inc/stm32g4xx_ll_exti.h ****   *         @arg @ref LL_EXTI_LINE_42(*)
 486:Drivers/STM32G4xx_HAL_Driver/Inc/stm32g4xx_ll_exti.h ****   *         @arg @ref LL_EXTI_LINE_ALL_32_63
 487:Drivers/STM32G4xx_HAL_Driver/Inc/stm32g4xx_ll_exti.h ****   * @note   (*): Available in some devices
 488:Drivers/STM32G4xx_HAL_Driver/Inc/stm32g4xx_ll_exti.h ****   * @retval State of bit (1 or 0).
 489:Drivers/STM32G4xx_HAL_Driver/Inc/stm32g4xx_ll_exti.h ****   */
 490:Drivers/STM32G4xx_HAL_Driver/Inc/stm32g4xx_ll_exti.h **** __STATIC_INLINE uint32_t LL_EXTI_IsEnabledIT_32_63(uint32_t ExtiLine)
 491:Drivers/STM32G4xx_HAL_Driver/Inc/stm32g4xx_ll_exti.h **** {
 492:Drivers/STM32G4xx_HAL_Driver/Inc/stm32g4xx_ll_exti.h ****   return ((READ_BIT(EXTI->IMR2, ExtiLine) == (ExtiLine)) ? 1UL : 0UL);
 493:Drivers/STM32G4xx_HAL_Driver/Inc/stm32g4xx_ll_exti.h **** }
 494:Drivers/STM32G4xx_HAL_Driver/Inc/stm32g4xx_ll_exti.h **** 
 495:Drivers/STM32G4xx_HAL_Driver/Inc/stm32g4xx_ll_exti.h **** /**
 496:Drivers/STM32G4xx_HAL_Driver/Inc/stm32g4xx_ll_exti.h ****   * @}
 497:Drivers/STM32G4xx_HAL_Driver/Inc/stm32g4xx_ll_exti.h ****   */
 498:Drivers/STM32G4xx_HAL_Driver/Inc/stm32g4xx_ll_exti.h **** 
 499:Drivers/STM32G4xx_HAL_Driver/Inc/stm32g4xx_ll_exti.h **** /** @defgroup EXTI_LL_EF_Event_Management Event_Management
 500:Drivers/STM32G4xx_HAL_Driver/Inc/stm32g4xx_ll_exti.h ****   * @{
 501:Drivers/STM32G4xx_HAL_Driver/Inc/stm32g4xx_ll_exti.h ****   */
 502:Drivers/STM32G4xx_HAL_Driver/Inc/stm32g4xx_ll_exti.h **** 
 503:Drivers/STM32G4xx_HAL_Driver/Inc/stm32g4xx_ll_exti.h **** /**
 504:Drivers/STM32G4xx_HAL_Driver/Inc/stm32g4xx_ll_exti.h ****   * @brief  Enable ExtiLine Event request for Lines in range 0 to 31
 505:Drivers/STM32G4xx_HAL_Driver/Inc/stm32g4xx_ll_exti.h ****   * @rmtoll EMR1         EMx           LL_EXTI_EnableEvent_0_31
 506:Drivers/STM32G4xx_HAL_Driver/Inc/stm32g4xx_ll_exti.h ****   * @param  ExtiLine This parameter can be one of the following values:
 507:Drivers/STM32G4xx_HAL_Driver/Inc/stm32g4xx_ll_exti.h ****   *         @arg @ref LL_EXTI_LINE_0
 508:Drivers/STM32G4xx_HAL_Driver/Inc/stm32g4xx_ll_exti.h ****   *         @arg @ref LL_EXTI_LINE_1
 509:Drivers/STM32G4xx_HAL_Driver/Inc/stm32g4xx_ll_exti.h ****   *         @arg @ref LL_EXTI_LINE_2
 510:Drivers/STM32G4xx_HAL_Driver/Inc/stm32g4xx_ll_exti.h ****   *         @arg @ref LL_EXTI_LINE_3
 511:Drivers/STM32G4xx_HAL_Driver/Inc/stm32g4xx_ll_exti.h ****   *         @arg @ref LL_EXTI_LINE_4
 512:Drivers/STM32G4xx_HAL_Driver/Inc/stm32g4xx_ll_exti.h ****   *         @arg @ref LL_EXTI_LINE_5
 513:Drivers/STM32G4xx_HAL_Driver/Inc/stm32g4xx_ll_exti.h ****   *         @arg @ref LL_EXTI_LINE_6
 514:Drivers/STM32G4xx_HAL_Driver/Inc/stm32g4xx_ll_exti.h ****   *         @arg @ref LL_EXTI_LINE_7
 515:Drivers/STM32G4xx_HAL_Driver/Inc/stm32g4xx_ll_exti.h ****   *         @arg @ref LL_EXTI_LINE_8
 516:Drivers/STM32G4xx_HAL_Driver/Inc/stm32g4xx_ll_exti.h ****   *         @arg @ref LL_EXTI_LINE_9
 517:Drivers/STM32G4xx_HAL_Driver/Inc/stm32g4xx_ll_exti.h ****   *         @arg @ref LL_EXTI_LINE_10
 518:Drivers/STM32G4xx_HAL_Driver/Inc/stm32g4xx_ll_exti.h ****   *         @arg @ref LL_EXTI_LINE_11
 519:Drivers/STM32G4xx_HAL_Driver/Inc/stm32g4xx_ll_exti.h ****   *         @arg @ref LL_EXTI_LINE_12
 520:Drivers/STM32G4xx_HAL_Driver/Inc/stm32g4xx_ll_exti.h ****   *         @arg @ref LL_EXTI_LINE_13
 521:Drivers/STM32G4xx_HAL_Driver/Inc/stm32g4xx_ll_exti.h ****   *         @arg @ref LL_EXTI_LINE_14
 522:Drivers/STM32G4xx_HAL_Driver/Inc/stm32g4xx_ll_exti.h ****   *         @arg @ref LL_EXTI_LINE_15
 523:Drivers/STM32G4xx_HAL_Driver/Inc/stm32g4xx_ll_exti.h ****   *         @arg @ref LL_EXTI_LINE_16
 524:Drivers/STM32G4xx_HAL_Driver/Inc/stm32g4xx_ll_exti.h ****   *         @arg @ref LL_EXTI_LINE_17
 525:Drivers/STM32G4xx_HAL_Driver/Inc/stm32g4xx_ll_exti.h ****   *         @arg @ref LL_EXTI_LINE_18
 526:Drivers/STM32G4xx_HAL_Driver/Inc/stm32g4xx_ll_exti.h ****   *         @arg @ref LL_EXTI_LINE_19
 527:Drivers/STM32G4xx_HAL_Driver/Inc/stm32g4xx_ll_exti.h ****   *         @arg @ref LL_EXTI_LINE_20
 528:Drivers/STM32G4xx_HAL_Driver/Inc/stm32g4xx_ll_exti.h ****   *         @arg @ref LL_EXTI_LINE_21
 529:Drivers/STM32G4xx_HAL_Driver/Inc/stm32g4xx_ll_exti.h ****   *         @arg @ref LL_EXTI_LINE_22
 530:Drivers/STM32G4xx_HAL_Driver/Inc/stm32g4xx_ll_exti.h ****   *         @arg @ref LL_EXTI_LINE_23
 531:Drivers/STM32G4xx_HAL_Driver/Inc/stm32g4xx_ll_exti.h ****   *         @arg @ref LL_EXTI_LINE_24
 532:Drivers/STM32G4xx_HAL_Driver/Inc/stm32g4xx_ll_exti.h ****   *         @arg @ref LL_EXTI_LINE_25
 533:Drivers/STM32G4xx_HAL_Driver/Inc/stm32g4xx_ll_exti.h ****   *         @arg @ref LL_EXTI_LINE_26
 534:Drivers/STM32G4xx_HAL_Driver/Inc/stm32g4xx_ll_exti.h ****   *         @arg @ref LL_EXTI_LINE_27
 535:Drivers/STM32G4xx_HAL_Driver/Inc/stm32g4xx_ll_exti.h ****   *         @arg @ref LL_EXTI_LINE_28
 536:Drivers/STM32G4xx_HAL_Driver/Inc/stm32g4xx_ll_exti.h ****   *         @arg @ref LL_EXTI_LINE_29
 537:Drivers/STM32G4xx_HAL_Driver/Inc/stm32g4xx_ll_exti.h ****   *         @arg @ref LL_EXTI_LINE_30
ARM GAS  C:\Users\T1\AppData\Local\Temp\cciVZ2by.s 			page 26


 538:Drivers/STM32G4xx_HAL_Driver/Inc/stm32g4xx_ll_exti.h ****   *         @arg @ref LL_EXTI_LINE_31
 539:Drivers/STM32G4xx_HAL_Driver/Inc/stm32g4xx_ll_exti.h ****   *         @arg @ref LL_EXTI_LINE_ALL_0_31 (*)
 540:Drivers/STM32G4xx_HAL_Driver/Inc/stm32g4xx_ll_exti.h ****   * @note   (*): Available in some devices
 541:Drivers/STM32G4xx_HAL_Driver/Inc/stm32g4xx_ll_exti.h ****   * @note   Please check each device line mapping for EXTI Line availability
 542:Drivers/STM32G4xx_HAL_Driver/Inc/stm32g4xx_ll_exti.h ****   * @retval None
 543:Drivers/STM32G4xx_HAL_Driver/Inc/stm32g4xx_ll_exti.h ****   */
 544:Drivers/STM32G4xx_HAL_Driver/Inc/stm32g4xx_ll_exti.h **** __STATIC_INLINE void LL_EXTI_EnableEvent_0_31(uint32_t ExtiLine)
 545:Drivers/STM32G4xx_HAL_Driver/Inc/stm32g4xx_ll_exti.h **** {
 546:Drivers/STM32G4xx_HAL_Driver/Inc/stm32g4xx_ll_exti.h ****   SET_BIT(EXTI->EMR1, ExtiLine);
 547:Drivers/STM32G4xx_HAL_Driver/Inc/stm32g4xx_ll_exti.h **** 
 548:Drivers/STM32G4xx_HAL_Driver/Inc/stm32g4xx_ll_exti.h **** }
 549:Drivers/STM32G4xx_HAL_Driver/Inc/stm32g4xx_ll_exti.h **** 
 550:Drivers/STM32G4xx_HAL_Driver/Inc/stm32g4xx_ll_exti.h **** /**
 551:Drivers/STM32G4xx_HAL_Driver/Inc/stm32g4xx_ll_exti.h ****   * @brief  Enable ExtiLine Event request for Lines in range 32 to 63
 552:Drivers/STM32G4xx_HAL_Driver/Inc/stm32g4xx_ll_exti.h ****   * @rmtoll EMR2         EMx           LL_EXTI_EnableEvent_32_63
 553:Drivers/STM32G4xx_HAL_Driver/Inc/stm32g4xx_ll_exti.h ****   * @param  ExtiLine This parameter can be a combination of the following values:
 554:Drivers/STM32G4xx_HAL_Driver/Inc/stm32g4xx_ll_exti.h ****   *         @arg @ref LL_EXTI_LINE_32 (*)
 555:Drivers/STM32G4xx_HAL_Driver/Inc/stm32g4xx_ll_exti.h ****   *         @arg @ref LL_EXTI_LINE_33 (*)
 556:Drivers/STM32G4xx_HAL_Driver/Inc/stm32g4xx_ll_exti.h ****   *         @arg @ref LL_EXTI_LINE_34
 557:Drivers/STM32G4xx_HAL_Driver/Inc/stm32g4xx_ll_exti.h ****   *         @arg @ref LL_EXTI_LINE_35 (*)
 558:Drivers/STM32G4xx_HAL_Driver/Inc/stm32g4xx_ll_exti.h ****   *         @arg @ref LL_EXTI_LINE_36
 559:Drivers/STM32G4xx_HAL_Driver/Inc/stm32g4xx_ll_exti.h ****   *         @arg @ref LL_EXTI_LINE_37
 560:Drivers/STM32G4xx_HAL_Driver/Inc/stm32g4xx_ll_exti.h ****   *         @arg @ref LL_EXTI_LINE_38
 561:Drivers/STM32G4xx_HAL_Driver/Inc/stm32g4xx_ll_exti.h ****   *         @arg @ref LL_EXTI_LINE_39
 562:Drivers/STM32G4xx_HAL_Driver/Inc/stm32g4xx_ll_exti.h ****   *         @arg @ref LL_EXTI_LINE_40
 563:Drivers/STM32G4xx_HAL_Driver/Inc/stm32g4xx_ll_exti.h ****   *         @arg @ref LL_EXTI_LINE_41
 564:Drivers/STM32G4xx_HAL_Driver/Inc/stm32g4xx_ll_exti.h ****   *         @arg @ref LL_EXTI_LINE_42(*)
 565:Drivers/STM32G4xx_HAL_Driver/Inc/stm32g4xx_ll_exti.h ****   *         @arg @ref LL_EXTI_LINE_ALL_32_63
 566:Drivers/STM32G4xx_HAL_Driver/Inc/stm32g4xx_ll_exti.h ****   * @note   (*): Available in some devices
 567:Drivers/STM32G4xx_HAL_Driver/Inc/stm32g4xx_ll_exti.h ****   * @retval None
 568:Drivers/STM32G4xx_HAL_Driver/Inc/stm32g4xx_ll_exti.h ****   */
 569:Drivers/STM32G4xx_HAL_Driver/Inc/stm32g4xx_ll_exti.h **** __STATIC_INLINE void LL_EXTI_EnableEvent_32_63(uint32_t ExtiLine)
 570:Drivers/STM32G4xx_HAL_Driver/Inc/stm32g4xx_ll_exti.h **** {
 571:Drivers/STM32G4xx_HAL_Driver/Inc/stm32g4xx_ll_exti.h ****   SET_BIT(EXTI->EMR2, ExtiLine);
 572:Drivers/STM32G4xx_HAL_Driver/Inc/stm32g4xx_ll_exti.h **** }
 573:Drivers/STM32G4xx_HAL_Driver/Inc/stm32g4xx_ll_exti.h **** 
 574:Drivers/STM32G4xx_HAL_Driver/Inc/stm32g4xx_ll_exti.h **** /**
 575:Drivers/STM32G4xx_HAL_Driver/Inc/stm32g4xx_ll_exti.h ****   * @brief  Disable ExtiLine Event request for Lines in range 0 to 31
 576:Drivers/STM32G4xx_HAL_Driver/Inc/stm32g4xx_ll_exti.h ****   * @rmtoll EMR1         EMx           LL_EXTI_DisableEvent_0_31
 577:Drivers/STM32G4xx_HAL_Driver/Inc/stm32g4xx_ll_exti.h ****   * @param  ExtiLine This parameter can be one of the following values:
 578:Drivers/STM32G4xx_HAL_Driver/Inc/stm32g4xx_ll_exti.h ****   *         @arg @ref LL_EXTI_LINE_0
 579:Drivers/STM32G4xx_HAL_Driver/Inc/stm32g4xx_ll_exti.h ****   *         @arg @ref LL_EXTI_LINE_1
 580:Drivers/STM32G4xx_HAL_Driver/Inc/stm32g4xx_ll_exti.h ****   *         @arg @ref LL_EXTI_LINE_2
 581:Drivers/STM32G4xx_HAL_Driver/Inc/stm32g4xx_ll_exti.h ****   *         @arg @ref LL_EXTI_LINE_3
 582:Drivers/STM32G4xx_HAL_Driver/Inc/stm32g4xx_ll_exti.h ****   *         @arg @ref LL_EXTI_LINE_4
 583:Drivers/STM32G4xx_HAL_Driver/Inc/stm32g4xx_ll_exti.h ****   *         @arg @ref LL_EXTI_LINE_5
 584:Drivers/STM32G4xx_HAL_Driver/Inc/stm32g4xx_ll_exti.h ****   *         @arg @ref LL_EXTI_LINE_6
 585:Drivers/STM32G4xx_HAL_Driver/Inc/stm32g4xx_ll_exti.h ****   *         @arg @ref LL_EXTI_LINE_7
 586:Drivers/STM32G4xx_HAL_Driver/Inc/stm32g4xx_ll_exti.h ****   *         @arg @ref LL_EXTI_LINE_8
 587:Drivers/STM32G4xx_HAL_Driver/Inc/stm32g4xx_ll_exti.h ****   *         @arg @ref LL_EXTI_LINE_9
 588:Drivers/STM32G4xx_HAL_Driver/Inc/stm32g4xx_ll_exti.h ****   *         @arg @ref LL_EXTI_LINE_10
 589:Drivers/STM32G4xx_HAL_Driver/Inc/stm32g4xx_ll_exti.h ****   *         @arg @ref LL_EXTI_LINE_11
 590:Drivers/STM32G4xx_HAL_Driver/Inc/stm32g4xx_ll_exti.h ****   *         @arg @ref LL_EXTI_LINE_12
 591:Drivers/STM32G4xx_HAL_Driver/Inc/stm32g4xx_ll_exti.h ****   *         @arg @ref LL_EXTI_LINE_13
 592:Drivers/STM32G4xx_HAL_Driver/Inc/stm32g4xx_ll_exti.h ****   *         @arg @ref LL_EXTI_LINE_14
 593:Drivers/STM32G4xx_HAL_Driver/Inc/stm32g4xx_ll_exti.h ****   *         @arg @ref LL_EXTI_LINE_15
 594:Drivers/STM32G4xx_HAL_Driver/Inc/stm32g4xx_ll_exti.h ****   *         @arg @ref LL_EXTI_LINE_16
ARM GAS  C:\Users\T1\AppData\Local\Temp\cciVZ2by.s 			page 27


 595:Drivers/STM32G4xx_HAL_Driver/Inc/stm32g4xx_ll_exti.h ****   *         @arg @ref LL_EXTI_LINE_17
 596:Drivers/STM32G4xx_HAL_Driver/Inc/stm32g4xx_ll_exti.h ****   *         @arg @ref LL_EXTI_LINE_18
 597:Drivers/STM32G4xx_HAL_Driver/Inc/stm32g4xx_ll_exti.h ****   *         @arg @ref LL_EXTI_LINE_19
 598:Drivers/STM32G4xx_HAL_Driver/Inc/stm32g4xx_ll_exti.h ****   *         @arg @ref LL_EXTI_LINE_20
 599:Drivers/STM32G4xx_HAL_Driver/Inc/stm32g4xx_ll_exti.h ****   *         @arg @ref LL_EXTI_LINE_21
 600:Drivers/STM32G4xx_HAL_Driver/Inc/stm32g4xx_ll_exti.h ****   *         @arg @ref LL_EXTI_LINE_22
 601:Drivers/STM32G4xx_HAL_Driver/Inc/stm32g4xx_ll_exti.h ****   *         @arg @ref LL_EXTI_LINE_23
 602:Drivers/STM32G4xx_HAL_Driver/Inc/stm32g4xx_ll_exti.h ****   *         @arg @ref LL_EXTI_LINE_24
 603:Drivers/STM32G4xx_HAL_Driver/Inc/stm32g4xx_ll_exti.h ****   *         @arg @ref LL_EXTI_LINE_25
 604:Drivers/STM32G4xx_HAL_Driver/Inc/stm32g4xx_ll_exti.h ****   *         @arg @ref LL_EXTI_LINE_26
 605:Drivers/STM32G4xx_HAL_Driver/Inc/stm32g4xx_ll_exti.h ****   *         @arg @ref LL_EXTI_LINE_27
 606:Drivers/STM32G4xx_HAL_Driver/Inc/stm32g4xx_ll_exti.h ****   *         @arg @ref LL_EXTI_LINE_28
 607:Drivers/STM32G4xx_HAL_Driver/Inc/stm32g4xx_ll_exti.h ****   *         @arg @ref LL_EXTI_LINE_29
 608:Drivers/STM32G4xx_HAL_Driver/Inc/stm32g4xx_ll_exti.h ****   *         @arg @ref LL_EXTI_LINE_30
 609:Drivers/STM32G4xx_HAL_Driver/Inc/stm32g4xx_ll_exti.h ****   *         @arg @ref LL_EXTI_LINE_31 (*)
 610:Drivers/STM32G4xx_HAL_Driver/Inc/stm32g4xx_ll_exti.h ****   *         @arg @ref LL_EXTI_LINE_ALL_0_31
 611:Drivers/STM32G4xx_HAL_Driver/Inc/stm32g4xx_ll_exti.h ****   * @note   (*): Available in some devices
 612:Drivers/STM32G4xx_HAL_Driver/Inc/stm32g4xx_ll_exti.h ****   * @note   Please check each device line mapping for EXTI Line availability
 613:Drivers/STM32G4xx_HAL_Driver/Inc/stm32g4xx_ll_exti.h ****   * @retval None
 614:Drivers/STM32G4xx_HAL_Driver/Inc/stm32g4xx_ll_exti.h ****   */
 615:Drivers/STM32G4xx_HAL_Driver/Inc/stm32g4xx_ll_exti.h **** __STATIC_INLINE void LL_EXTI_DisableEvent_0_31(uint32_t ExtiLine)
 616:Drivers/STM32G4xx_HAL_Driver/Inc/stm32g4xx_ll_exti.h **** {
 617:Drivers/STM32G4xx_HAL_Driver/Inc/stm32g4xx_ll_exti.h ****   CLEAR_BIT(EXTI->EMR1, ExtiLine);
 618:Drivers/STM32G4xx_HAL_Driver/Inc/stm32g4xx_ll_exti.h **** }
 619:Drivers/STM32G4xx_HAL_Driver/Inc/stm32g4xx_ll_exti.h **** 
 620:Drivers/STM32G4xx_HAL_Driver/Inc/stm32g4xx_ll_exti.h **** /**
 621:Drivers/STM32G4xx_HAL_Driver/Inc/stm32g4xx_ll_exti.h ****   * @brief  Disable ExtiLine Event request for Lines in range 32 to 63
 622:Drivers/STM32G4xx_HAL_Driver/Inc/stm32g4xx_ll_exti.h ****   * @rmtoll EMR2         EMx           LL_EXTI_DisableEvent_32_63
 623:Drivers/STM32G4xx_HAL_Driver/Inc/stm32g4xx_ll_exti.h ****   * @param  ExtiLine This parameter can be a combination of the following values:
 624:Drivers/STM32G4xx_HAL_Driver/Inc/stm32g4xx_ll_exti.h ****   *         @arg @ref LL_EXTI_LINE_32 (*)
 625:Drivers/STM32G4xx_HAL_Driver/Inc/stm32g4xx_ll_exti.h ****   *         @arg @ref LL_EXTI_LINE_33 (*)
 626:Drivers/STM32G4xx_HAL_Driver/Inc/stm32g4xx_ll_exti.h ****   *         @arg @ref LL_EXTI_LINE_34
 627:Drivers/STM32G4xx_HAL_Driver/Inc/stm32g4xx_ll_exti.h ****   *         @arg @ref LL_EXTI_LINE_35 (*)
 628:Drivers/STM32G4xx_HAL_Driver/Inc/stm32g4xx_ll_exti.h ****   *         @arg @ref LL_EXTI_LINE_36
 629:Drivers/STM32G4xx_HAL_Driver/Inc/stm32g4xx_ll_exti.h ****   *         @arg @ref LL_EXTI_LINE_37
 630:Drivers/STM32G4xx_HAL_Driver/Inc/stm32g4xx_ll_exti.h ****   *         @arg @ref LL_EXTI_LINE_38
 631:Drivers/STM32G4xx_HAL_Driver/Inc/stm32g4xx_ll_exti.h ****   *         @arg @ref LL_EXTI_LINE_39
 632:Drivers/STM32G4xx_HAL_Driver/Inc/stm32g4xx_ll_exti.h ****   *         @arg @ref LL_EXTI_LINE_40
 633:Drivers/STM32G4xx_HAL_Driver/Inc/stm32g4xx_ll_exti.h ****   *         @arg @ref LL_EXTI_LINE_41
 634:Drivers/STM32G4xx_HAL_Driver/Inc/stm32g4xx_ll_exti.h ****   *         @arg @ref LL_EXTI_LINE_42(*)
 635:Drivers/STM32G4xx_HAL_Driver/Inc/stm32g4xx_ll_exti.h ****   *         @arg @ref LL_EXTI_LINE_ALL_32_63
 636:Drivers/STM32G4xx_HAL_Driver/Inc/stm32g4xx_ll_exti.h ****   * @note   (*): Available in some devices
 637:Drivers/STM32G4xx_HAL_Driver/Inc/stm32g4xx_ll_exti.h ****   * @retval None
 638:Drivers/STM32G4xx_HAL_Driver/Inc/stm32g4xx_ll_exti.h ****   */
 639:Drivers/STM32G4xx_HAL_Driver/Inc/stm32g4xx_ll_exti.h **** __STATIC_INLINE void LL_EXTI_DisableEvent_32_63(uint32_t ExtiLine)
 640:Drivers/STM32G4xx_HAL_Driver/Inc/stm32g4xx_ll_exti.h **** {
 641:Drivers/STM32G4xx_HAL_Driver/Inc/stm32g4xx_ll_exti.h ****   CLEAR_BIT(EXTI->EMR2, ExtiLine);
 642:Drivers/STM32G4xx_HAL_Driver/Inc/stm32g4xx_ll_exti.h **** }
 643:Drivers/STM32G4xx_HAL_Driver/Inc/stm32g4xx_ll_exti.h **** 
 644:Drivers/STM32G4xx_HAL_Driver/Inc/stm32g4xx_ll_exti.h **** /**
 645:Drivers/STM32G4xx_HAL_Driver/Inc/stm32g4xx_ll_exti.h ****   * @brief  Indicate if ExtiLine Event request is enabled for Lines in range 0 to 31
 646:Drivers/STM32G4xx_HAL_Driver/Inc/stm32g4xx_ll_exti.h ****   * @rmtoll EMR1         EMx           LL_EXTI_IsEnabledEvent_0_31
 647:Drivers/STM32G4xx_HAL_Driver/Inc/stm32g4xx_ll_exti.h ****   * @param  ExtiLine This parameter can be one of the following values:
 648:Drivers/STM32G4xx_HAL_Driver/Inc/stm32g4xx_ll_exti.h ****   *         @arg @ref LL_EXTI_LINE_0
 649:Drivers/STM32G4xx_HAL_Driver/Inc/stm32g4xx_ll_exti.h ****   *         @arg @ref LL_EXTI_LINE_1
 650:Drivers/STM32G4xx_HAL_Driver/Inc/stm32g4xx_ll_exti.h ****   *         @arg @ref LL_EXTI_LINE_2
 651:Drivers/STM32G4xx_HAL_Driver/Inc/stm32g4xx_ll_exti.h ****   *         @arg @ref LL_EXTI_LINE_3
ARM GAS  C:\Users\T1\AppData\Local\Temp\cciVZ2by.s 			page 28


 652:Drivers/STM32G4xx_HAL_Driver/Inc/stm32g4xx_ll_exti.h ****   *         @arg @ref LL_EXTI_LINE_4
 653:Drivers/STM32G4xx_HAL_Driver/Inc/stm32g4xx_ll_exti.h ****   *         @arg @ref LL_EXTI_LINE_5
 654:Drivers/STM32G4xx_HAL_Driver/Inc/stm32g4xx_ll_exti.h ****   *         @arg @ref LL_EXTI_LINE_6
 655:Drivers/STM32G4xx_HAL_Driver/Inc/stm32g4xx_ll_exti.h ****   *         @arg @ref LL_EXTI_LINE_7
 656:Drivers/STM32G4xx_HAL_Driver/Inc/stm32g4xx_ll_exti.h ****   *         @arg @ref LL_EXTI_LINE_8
 657:Drivers/STM32G4xx_HAL_Driver/Inc/stm32g4xx_ll_exti.h ****   *         @arg @ref LL_EXTI_LINE_9
 658:Drivers/STM32G4xx_HAL_Driver/Inc/stm32g4xx_ll_exti.h ****   *         @arg @ref LL_EXTI_LINE_10
 659:Drivers/STM32G4xx_HAL_Driver/Inc/stm32g4xx_ll_exti.h ****   *         @arg @ref LL_EXTI_LINE_11
 660:Drivers/STM32G4xx_HAL_Driver/Inc/stm32g4xx_ll_exti.h ****   *         @arg @ref LL_EXTI_LINE_12
 661:Drivers/STM32G4xx_HAL_Driver/Inc/stm32g4xx_ll_exti.h ****   *         @arg @ref LL_EXTI_LINE_13
 662:Drivers/STM32G4xx_HAL_Driver/Inc/stm32g4xx_ll_exti.h ****   *         @arg @ref LL_EXTI_LINE_14
 663:Drivers/STM32G4xx_HAL_Driver/Inc/stm32g4xx_ll_exti.h ****   *         @arg @ref LL_EXTI_LINE_15
 664:Drivers/STM32G4xx_HAL_Driver/Inc/stm32g4xx_ll_exti.h ****   *         @arg @ref LL_EXTI_LINE_16
 665:Drivers/STM32G4xx_HAL_Driver/Inc/stm32g4xx_ll_exti.h ****   *         @arg @ref LL_EXTI_LINE_17
 666:Drivers/STM32G4xx_HAL_Driver/Inc/stm32g4xx_ll_exti.h ****   *         @arg @ref LL_EXTI_LINE_18
 667:Drivers/STM32G4xx_HAL_Driver/Inc/stm32g4xx_ll_exti.h ****   *         @arg @ref LL_EXTI_LINE_19
 668:Drivers/STM32G4xx_HAL_Driver/Inc/stm32g4xx_ll_exti.h ****   *         @arg @ref LL_EXTI_LINE_20
 669:Drivers/STM32G4xx_HAL_Driver/Inc/stm32g4xx_ll_exti.h ****   *         @arg @ref LL_EXTI_LINE_21
 670:Drivers/STM32G4xx_HAL_Driver/Inc/stm32g4xx_ll_exti.h ****   *         @arg @ref LL_EXTI_LINE_22
 671:Drivers/STM32G4xx_HAL_Driver/Inc/stm32g4xx_ll_exti.h ****   *         @arg @ref LL_EXTI_LINE_23
 672:Drivers/STM32G4xx_HAL_Driver/Inc/stm32g4xx_ll_exti.h ****   *         @arg @ref LL_EXTI_LINE_24
 673:Drivers/STM32G4xx_HAL_Driver/Inc/stm32g4xx_ll_exti.h ****   *         @arg @ref LL_EXTI_LINE_25
 674:Drivers/STM32G4xx_HAL_Driver/Inc/stm32g4xx_ll_exti.h ****   *         @arg @ref LL_EXTI_LINE_26
 675:Drivers/STM32G4xx_HAL_Driver/Inc/stm32g4xx_ll_exti.h ****   *         @arg @ref LL_EXTI_LINE_27
 676:Drivers/STM32G4xx_HAL_Driver/Inc/stm32g4xx_ll_exti.h ****   *         @arg @ref LL_EXTI_LINE_28
 677:Drivers/STM32G4xx_HAL_Driver/Inc/stm32g4xx_ll_exti.h ****   *         @arg @ref LL_EXTI_LINE_29
 678:Drivers/STM32G4xx_HAL_Driver/Inc/stm32g4xx_ll_exti.h ****   *         @arg @ref LL_EXTI_LINE_30
 679:Drivers/STM32G4xx_HAL_Driver/Inc/stm32g4xx_ll_exti.h ****   *         @arg @ref LL_EXTI_LINE_31
 680:Drivers/STM32G4xx_HAL_Driver/Inc/stm32g4xx_ll_exti.h ****   *         @arg @ref LL_EXTI_LINE_ALL_0_31 (*)
 681:Drivers/STM32G4xx_HAL_Driver/Inc/stm32g4xx_ll_exti.h ****   * @note   (*): Available in some devices
 682:Drivers/STM32G4xx_HAL_Driver/Inc/stm32g4xx_ll_exti.h ****   * @note   Please check each device line mapping for EXTI Line availability
 683:Drivers/STM32G4xx_HAL_Driver/Inc/stm32g4xx_ll_exti.h ****   * @retval State of bit (1 or 0).
 684:Drivers/STM32G4xx_HAL_Driver/Inc/stm32g4xx_ll_exti.h ****   */
 685:Drivers/STM32G4xx_HAL_Driver/Inc/stm32g4xx_ll_exti.h **** __STATIC_INLINE uint32_t LL_EXTI_IsEnabledEvent_0_31(uint32_t ExtiLine)
 686:Drivers/STM32G4xx_HAL_Driver/Inc/stm32g4xx_ll_exti.h **** {
 687:Drivers/STM32G4xx_HAL_Driver/Inc/stm32g4xx_ll_exti.h ****   return ((READ_BIT(EXTI->EMR1, ExtiLine) == (ExtiLine)) ? 1UL : 0UL);
 688:Drivers/STM32G4xx_HAL_Driver/Inc/stm32g4xx_ll_exti.h **** 
 689:Drivers/STM32G4xx_HAL_Driver/Inc/stm32g4xx_ll_exti.h **** }
 690:Drivers/STM32G4xx_HAL_Driver/Inc/stm32g4xx_ll_exti.h **** 
 691:Drivers/STM32G4xx_HAL_Driver/Inc/stm32g4xx_ll_exti.h **** /**
 692:Drivers/STM32G4xx_HAL_Driver/Inc/stm32g4xx_ll_exti.h ****   * @brief  Indicate if ExtiLine Event request is enabled for Lines in range 32 to 63
 693:Drivers/STM32G4xx_HAL_Driver/Inc/stm32g4xx_ll_exti.h ****   * @rmtoll EMR2         EMx           LL_EXTI_IsEnabledEvent_32_63
 694:Drivers/STM32G4xx_HAL_Driver/Inc/stm32g4xx_ll_exti.h ****   * @param  ExtiLine This parameter can be a combination of the following values:
 695:Drivers/STM32G4xx_HAL_Driver/Inc/stm32g4xx_ll_exti.h ****   *         @arg @ref LL_EXTI_LINE_32 (*)
 696:Drivers/STM32G4xx_HAL_Driver/Inc/stm32g4xx_ll_exti.h ****   *         @arg @ref LL_EXTI_LINE_33 (*)
 697:Drivers/STM32G4xx_HAL_Driver/Inc/stm32g4xx_ll_exti.h ****   *         @arg @ref LL_EXTI_LINE_34
 698:Drivers/STM32G4xx_HAL_Driver/Inc/stm32g4xx_ll_exti.h ****   *         @arg @ref LL_EXTI_LINE_35 (*)
 699:Drivers/STM32G4xx_HAL_Driver/Inc/stm32g4xx_ll_exti.h ****   *         @arg @ref LL_EXTI_LINE_36
 700:Drivers/STM32G4xx_HAL_Driver/Inc/stm32g4xx_ll_exti.h ****   *         @arg @ref LL_EXTI_LINE_37
 701:Drivers/STM32G4xx_HAL_Driver/Inc/stm32g4xx_ll_exti.h ****   *         @arg @ref LL_EXTI_LINE_38
 702:Drivers/STM32G4xx_HAL_Driver/Inc/stm32g4xx_ll_exti.h ****   *         @arg @ref LL_EXTI_LINE_39
 703:Drivers/STM32G4xx_HAL_Driver/Inc/stm32g4xx_ll_exti.h ****   *         @arg @ref LL_EXTI_LINE_40
 704:Drivers/STM32G4xx_HAL_Driver/Inc/stm32g4xx_ll_exti.h ****   *         @arg @ref LL_EXTI_LINE_41
 705:Drivers/STM32G4xx_HAL_Driver/Inc/stm32g4xx_ll_exti.h ****   *         @arg @ref LL_EXTI_LINE_42(*)
 706:Drivers/STM32G4xx_HAL_Driver/Inc/stm32g4xx_ll_exti.h ****   *         @arg @ref LL_EXTI_LINE_ALL_32_63
 707:Drivers/STM32G4xx_HAL_Driver/Inc/stm32g4xx_ll_exti.h ****   * @note   (*): Available in some devices
 708:Drivers/STM32G4xx_HAL_Driver/Inc/stm32g4xx_ll_exti.h ****   * @retval State of bit (1 or 0).
ARM GAS  C:\Users\T1\AppData\Local\Temp\cciVZ2by.s 			page 29


 709:Drivers/STM32G4xx_HAL_Driver/Inc/stm32g4xx_ll_exti.h ****   */
 710:Drivers/STM32G4xx_HAL_Driver/Inc/stm32g4xx_ll_exti.h **** __STATIC_INLINE uint32_t LL_EXTI_IsEnabledEvent_32_63(uint32_t ExtiLine)
 711:Drivers/STM32G4xx_HAL_Driver/Inc/stm32g4xx_ll_exti.h **** {
 712:Drivers/STM32G4xx_HAL_Driver/Inc/stm32g4xx_ll_exti.h ****   return ((READ_BIT(EXTI->EMR2, ExtiLine) == (ExtiLine)) ? 1UL : 0UL);
 713:Drivers/STM32G4xx_HAL_Driver/Inc/stm32g4xx_ll_exti.h **** }
 714:Drivers/STM32G4xx_HAL_Driver/Inc/stm32g4xx_ll_exti.h **** 
 715:Drivers/STM32G4xx_HAL_Driver/Inc/stm32g4xx_ll_exti.h **** /**
 716:Drivers/STM32G4xx_HAL_Driver/Inc/stm32g4xx_ll_exti.h ****   * @}
 717:Drivers/STM32G4xx_HAL_Driver/Inc/stm32g4xx_ll_exti.h ****   */
 718:Drivers/STM32G4xx_HAL_Driver/Inc/stm32g4xx_ll_exti.h **** 
 719:Drivers/STM32G4xx_HAL_Driver/Inc/stm32g4xx_ll_exti.h **** /** @defgroup EXTI_LL_EF_Rising_Trigger_Management Rising_Trigger_Management
 720:Drivers/STM32G4xx_HAL_Driver/Inc/stm32g4xx_ll_exti.h ****   * @{
 721:Drivers/STM32G4xx_HAL_Driver/Inc/stm32g4xx_ll_exti.h ****   */
 722:Drivers/STM32G4xx_HAL_Driver/Inc/stm32g4xx_ll_exti.h **** 
 723:Drivers/STM32G4xx_HAL_Driver/Inc/stm32g4xx_ll_exti.h **** /**
 724:Drivers/STM32G4xx_HAL_Driver/Inc/stm32g4xx_ll_exti.h ****   * @brief  Enable ExtiLine Rising Edge Trigger for Lines in range 0 to 31
 725:Drivers/STM32G4xx_HAL_Driver/Inc/stm32g4xx_ll_exti.h ****   * @note The configurable wakeup lines are edge-triggered. No glitch must be
 726:Drivers/STM32G4xx_HAL_Driver/Inc/stm32g4xx_ll_exti.h ****   *       generated on these lines. If a rising edge on a configurable interrupt
 727:Drivers/STM32G4xx_HAL_Driver/Inc/stm32g4xx_ll_exti.h ****   *       line occurs during a write operation in the EXTI_RTSR register, the
 728:Drivers/STM32G4xx_HAL_Driver/Inc/stm32g4xx_ll_exti.h ****   *       pending bit is not set.
 729:Drivers/STM32G4xx_HAL_Driver/Inc/stm32g4xx_ll_exti.h ****   *       Rising and falling edge triggers can be set for
 730:Drivers/STM32G4xx_HAL_Driver/Inc/stm32g4xx_ll_exti.h ****   *       the same interrupt line. In this case, both generate a trigger
 731:Drivers/STM32G4xx_HAL_Driver/Inc/stm32g4xx_ll_exti.h ****   *       condition.
 732:Drivers/STM32G4xx_HAL_Driver/Inc/stm32g4xx_ll_exti.h ****   * @rmtoll RTSR1        RTx           LL_EXTI_EnableRisingTrig_0_31
 733:Drivers/STM32G4xx_HAL_Driver/Inc/stm32g4xx_ll_exti.h ****   * @param  ExtiLine This parameter can be a combination of the following values:
 734:Drivers/STM32G4xx_HAL_Driver/Inc/stm32g4xx_ll_exti.h ****   *         @arg @ref LL_EXTI_LINE_0
 735:Drivers/STM32G4xx_HAL_Driver/Inc/stm32g4xx_ll_exti.h ****   *         @arg @ref LL_EXTI_LINE_1
 736:Drivers/STM32G4xx_HAL_Driver/Inc/stm32g4xx_ll_exti.h ****   *         @arg @ref LL_EXTI_LINE_2
 737:Drivers/STM32G4xx_HAL_Driver/Inc/stm32g4xx_ll_exti.h ****   *         @arg @ref LL_EXTI_LINE_3
 738:Drivers/STM32G4xx_HAL_Driver/Inc/stm32g4xx_ll_exti.h ****   *         @arg @ref LL_EXTI_LINE_4
 739:Drivers/STM32G4xx_HAL_Driver/Inc/stm32g4xx_ll_exti.h ****   *         @arg @ref LL_EXTI_LINE_5
 740:Drivers/STM32G4xx_HAL_Driver/Inc/stm32g4xx_ll_exti.h ****   *         @arg @ref LL_EXTI_LINE_6
 741:Drivers/STM32G4xx_HAL_Driver/Inc/stm32g4xx_ll_exti.h ****   *         @arg @ref LL_EXTI_LINE_7
 742:Drivers/STM32G4xx_HAL_Driver/Inc/stm32g4xx_ll_exti.h ****   *         @arg @ref LL_EXTI_LINE_8
 743:Drivers/STM32G4xx_HAL_Driver/Inc/stm32g4xx_ll_exti.h ****   *         @arg @ref LL_EXTI_LINE_9
 744:Drivers/STM32G4xx_HAL_Driver/Inc/stm32g4xx_ll_exti.h ****   *         @arg @ref LL_EXTI_LINE_10
 745:Drivers/STM32G4xx_HAL_Driver/Inc/stm32g4xx_ll_exti.h ****   *         @arg @ref LL_EXTI_LINE_11
 746:Drivers/STM32G4xx_HAL_Driver/Inc/stm32g4xx_ll_exti.h ****   *         @arg @ref LL_EXTI_LINE_12
 747:Drivers/STM32G4xx_HAL_Driver/Inc/stm32g4xx_ll_exti.h ****   *         @arg @ref LL_EXTI_LINE_13
 748:Drivers/STM32G4xx_HAL_Driver/Inc/stm32g4xx_ll_exti.h ****   *         @arg @ref LL_EXTI_LINE_14
 749:Drivers/STM32G4xx_HAL_Driver/Inc/stm32g4xx_ll_exti.h ****   *         @arg @ref LL_EXTI_LINE_15
 750:Drivers/STM32G4xx_HAL_Driver/Inc/stm32g4xx_ll_exti.h ****   *         @arg @ref LL_EXTI_LINE_16
 751:Drivers/STM32G4xx_HAL_Driver/Inc/stm32g4xx_ll_exti.h ****   *         @arg @ref LL_EXTI_LINE_18
 752:Drivers/STM32G4xx_HAL_Driver/Inc/stm32g4xx_ll_exti.h ****   *         @arg @ref LL_EXTI_LINE_19
 753:Drivers/STM32G4xx_HAL_Driver/Inc/stm32g4xx_ll_exti.h ****   *         @arg @ref LL_EXTI_LINE_20
 754:Drivers/STM32G4xx_HAL_Driver/Inc/stm32g4xx_ll_exti.h ****   *         @arg @ref LL_EXTI_LINE_21
 755:Drivers/STM32G4xx_HAL_Driver/Inc/stm32g4xx_ll_exti.h ****   *         @arg @ref LL_EXTI_LINE_22
 756:Drivers/STM32G4xx_HAL_Driver/Inc/stm32g4xx_ll_exti.h ****   *         @arg @ref LL_EXTI_LINE_29
 757:Drivers/STM32G4xx_HAL_Driver/Inc/stm32g4xx_ll_exti.h ****   *         @arg @ref LL_EXTI_LINE_30
 758:Drivers/STM32G4xx_HAL_Driver/Inc/stm32g4xx_ll_exti.h ****   *         @arg @ref LL_EXTI_LINE_31 (*)
 759:Drivers/STM32G4xx_HAL_Driver/Inc/stm32g4xx_ll_exti.h ****   * @note   (*): Available in some devices
 760:Drivers/STM32G4xx_HAL_Driver/Inc/stm32g4xx_ll_exti.h ****   * @note   Please check each device line mapping for EXTI Line availability
 761:Drivers/STM32G4xx_HAL_Driver/Inc/stm32g4xx_ll_exti.h ****   * @retval None
 762:Drivers/STM32G4xx_HAL_Driver/Inc/stm32g4xx_ll_exti.h ****   */
 763:Drivers/STM32G4xx_HAL_Driver/Inc/stm32g4xx_ll_exti.h **** __STATIC_INLINE void LL_EXTI_EnableRisingTrig_0_31(uint32_t ExtiLine)
 244              		.loc 2 763 22 view .LVU75
 245              	.LBB55:
ARM GAS  C:\Users\T1\AppData\Local\Temp\cciVZ2by.s 			page 30


 764:Drivers/STM32G4xx_HAL_Driver/Inc/stm32g4xx_ll_exti.h **** {
 765:Drivers/STM32G4xx_HAL_Driver/Inc/stm32g4xx_ll_exti.h ****   SET_BIT(EXTI->RTSR1, ExtiLine);
 246              		.loc 2 765 3 view .LVU76
 247 00ca 7249     		ldr	r1, .L54+20
 248 00cc 8A68     		ldr	r2, [r1, #8]
 249 00ce 1A43     		orrs	r2, r2, r3
 250 00d0 8A60     		str	r2, [r1, #8]
 766:Drivers/STM32G4xx_HAL_Driver/Inc/stm32g4xx_ll_exti.h **** 
 767:Drivers/STM32G4xx_HAL_Driver/Inc/stm32g4xx_ll_exti.h **** }
 251              		.loc 2 767 1 is_stmt 0 view .LVU77
 252 00d2 0FE0     		b	.L13
 253              	.LVL12:
 254              	.L45:
 255              		.loc 2 767 1 view .LVU78
 256              	.LBE55:
 257              	.LBE54:
 322:Drivers/STM32G4xx_HAL_Driver/Src/stm32g4xx_hal_comp.c **** 
 258              		.loc 1 322 17 view .LVU79
 259 00d4 4FF48003 		mov	r3, #4194304
 260 00d8 E9E7     		b	.L8
 261              	.L46:
 262 00da 4FF00053 		mov	r3, #536870912
 263 00de E6E7     		b	.L8
 264              	.L47:
 265 00e0 4FF08043 		mov	r3, #1073741824
 266 00e4 E3E7     		b	.L8
 267              	.L48:
 268 00e6 4FF00043 		mov	r3, #-2147483648
 269 00ea E0E7     		b	.L8
 270              	.LVL13:
 271              	.L11:
 333:Drivers/STM32G4xx_HAL_Driver/Src/stm32g4xx_hal_comp.c ****         }
 272              		.loc 1 333 11 is_stmt 1 view .LVU80
 273              	.LBB56:
 274              	.LBI56:
 768:Drivers/STM32G4xx_HAL_Driver/Inc/stm32g4xx_ll_exti.h **** 
 769:Drivers/STM32G4xx_HAL_Driver/Inc/stm32g4xx_ll_exti.h **** /**
 770:Drivers/STM32G4xx_HAL_Driver/Inc/stm32g4xx_ll_exti.h ****   * @brief  Enable ExtiLine Rising Edge Trigger for Lines in range 32 to 63
 771:Drivers/STM32G4xx_HAL_Driver/Inc/stm32g4xx_ll_exti.h ****   * @note The configurable wakeup lines are edge-triggered. No glitch must be
 772:Drivers/STM32G4xx_HAL_Driver/Inc/stm32g4xx_ll_exti.h ****   *       generated on these lines. If a rising edge on a configurable interrupt
 773:Drivers/STM32G4xx_HAL_Driver/Inc/stm32g4xx_ll_exti.h ****   *       line occurs during a write operation in the EXTI_RTSR register, the
 774:Drivers/STM32G4xx_HAL_Driver/Inc/stm32g4xx_ll_exti.h ****   *       pending bit is not set.Rising and falling edge triggers can be set for
 775:Drivers/STM32G4xx_HAL_Driver/Inc/stm32g4xx_ll_exti.h ****   *       the same interrupt line. In this case, both generate a trigger
 776:Drivers/STM32G4xx_HAL_Driver/Inc/stm32g4xx_ll_exti.h ****   *       condition.
 777:Drivers/STM32G4xx_HAL_Driver/Inc/stm32g4xx_ll_exti.h ****   * @rmtoll RTSR2        RTx           LL_EXTI_EnableRisingTrig_32_63
 778:Drivers/STM32G4xx_HAL_Driver/Inc/stm32g4xx_ll_exti.h ****   * @param  ExtiLine This parameter can be a combination of the following values:
 779:Drivers/STM32G4xx_HAL_Driver/Inc/stm32g4xx_ll_exti.h ****   *         @arg @ref LL_EXTI_LINE_32 (*)
 780:Drivers/STM32G4xx_HAL_Driver/Inc/stm32g4xx_ll_exti.h ****   *         @arg @ref LL_EXTI_LINE_33 (*)
 781:Drivers/STM32G4xx_HAL_Driver/Inc/stm32g4xx_ll_exti.h ****   *         @arg @ref LL_EXTI_LINE_38
 782:Drivers/STM32G4xx_HAL_Driver/Inc/stm32g4xx_ll_exti.h ****   *         @arg @ref LL_EXTI_LINE_39
 783:Drivers/STM32G4xx_HAL_Driver/Inc/stm32g4xx_ll_exti.h ****   *         @arg @ref LL_EXTI_LINE_40
 784:Drivers/STM32G4xx_HAL_Driver/Inc/stm32g4xx_ll_exti.h ****   *         @arg @ref LL_EXTI_LINE_41
 785:Drivers/STM32G4xx_HAL_Driver/Inc/stm32g4xx_ll_exti.h ****   * @note   (*): Available in some devices
 786:Drivers/STM32G4xx_HAL_Driver/Inc/stm32g4xx_ll_exti.h ****   * @retval None
 787:Drivers/STM32G4xx_HAL_Driver/Inc/stm32g4xx_ll_exti.h ****   */
 788:Drivers/STM32G4xx_HAL_Driver/Inc/stm32g4xx_ll_exti.h **** __STATIC_INLINE void LL_EXTI_EnableRisingTrig_32_63(uint32_t ExtiLine)
 275              		.loc 2 788 22 view .LVU81
ARM GAS  C:\Users\T1\AppData\Local\Temp\cciVZ2by.s 			page 31


 276              	.LBB57:
 789:Drivers/STM32G4xx_HAL_Driver/Inc/stm32g4xx_ll_exti.h **** {
 790:Drivers/STM32G4xx_HAL_Driver/Inc/stm32g4xx_ll_exti.h ****   SET_BIT(EXTI->RTSR2, ExtiLine);
 277              		.loc 2 790 3 view .LVU82
 278 00ec 6949     		ldr	r1, .L54+20
 279 00ee 8A6A     		ldr	r2, [r1, #40]
 280 00f0 1A43     		orrs	r2, r2, r3
 281 00f2 8A62     		str	r2, [r1, #40]
 282              	.LVL14:
 283              	.L13:
 284              		.loc 2 790 3 is_stmt 0 view .LVU83
 285              	.LBE57:
 286              	.LBE56:
 360:Drivers/STM32G4xx_HAL_Driver/Src/stm32g4xx_hal_comp.c ****       {
 287              		.loc 1 360 7 is_stmt 1 view .LVU84
 360:Drivers/STM32G4xx_HAL_Driver/Src/stm32g4xx_hal_comp.c ****       {
 288              		.loc 1 360 22 is_stmt 0 view .LVU85
 289 00f4 A269     		ldr	r2, [r4, #24]
 360:Drivers/STM32G4xx_HAL_Driver/Src/stm32g4xx_hal_comp.c ****       {
 290              		.loc 1 360 9 view .LVU86
 291 00f6 12F0200F 		tst	r2, #32
 292 00fa 2BD0     		beq	.L16
 363:Drivers/STM32G4xx_HAL_Driver/Src/stm32g4xx_hal_comp.c ****         {
 293              		.loc 1 363 9 is_stmt 1 view .LVU87
 363:Drivers/STM32G4xx_HAL_Driver/Src/stm32g4xx_hal_comp.c ****         {
 294              		.loc 1 363 18 is_stmt 0 view .LVU88
 295 00fc 2268     		ldr	r2, [r4]
 363:Drivers/STM32G4xx_HAL_Driver/Src/stm32g4xx_hal_comp.c ****         {
 296              		.loc 1 363 11 view .LVU89
 297 00fe 6449     		ldr	r1, .L54+16
 298 0100 8A42     		cmp	r2, r1
 299 0102 19D0     		beq	.L17
 363:Drivers/STM32G4xx_HAL_Driver/Src/stm32g4xx_hal_comp.c ****         {
 300              		.loc 1 363 39 discriminator 1 view .LVU90
 301 0104 0431     		adds	r1, r1, #4
 302 0106 8A42     		cmp	r2, r1
 303 0108 16D0     		beq	.L17
 369:Drivers/STM32G4xx_HAL_Driver/Src/stm32g4xx_hal_comp.c ****         }
 304              		.loc 1 369 11 is_stmt 1 view .LVU91
 305              	.LVL15:
 306              	.LBB58:
 307              	.LBI58:
 791:Drivers/STM32G4xx_HAL_Driver/Inc/stm32g4xx_ll_exti.h **** }
 792:Drivers/STM32G4xx_HAL_Driver/Inc/stm32g4xx_ll_exti.h **** 
 793:Drivers/STM32G4xx_HAL_Driver/Inc/stm32g4xx_ll_exti.h **** /**
 794:Drivers/STM32G4xx_HAL_Driver/Inc/stm32g4xx_ll_exti.h ****   * @brief  Disable ExtiLine Rising Edge Trigger for Lines in range 0 to 31
 795:Drivers/STM32G4xx_HAL_Driver/Inc/stm32g4xx_ll_exti.h ****   * @note The configurable wakeup lines are edge-triggered. No glitch must be
 796:Drivers/STM32G4xx_HAL_Driver/Inc/stm32g4xx_ll_exti.h ****   *       generated on these lines. If a rising edge on a configurable interrupt
 797:Drivers/STM32G4xx_HAL_Driver/Inc/stm32g4xx_ll_exti.h ****   *       line occurs during a write operation in the EXTI_RTSR register, the
 798:Drivers/STM32G4xx_HAL_Driver/Inc/stm32g4xx_ll_exti.h ****   *       pending bit is not set.
 799:Drivers/STM32G4xx_HAL_Driver/Inc/stm32g4xx_ll_exti.h ****   *       Rising and falling edge triggers can be set for
 800:Drivers/STM32G4xx_HAL_Driver/Inc/stm32g4xx_ll_exti.h ****   *       the same interrupt line. In this case, both generate a trigger
 801:Drivers/STM32G4xx_HAL_Driver/Inc/stm32g4xx_ll_exti.h ****   *       condition.
 802:Drivers/STM32G4xx_HAL_Driver/Inc/stm32g4xx_ll_exti.h ****   * @rmtoll RTSR1        RTx           LL_EXTI_DisableRisingTrig_0_31
 803:Drivers/STM32G4xx_HAL_Driver/Inc/stm32g4xx_ll_exti.h ****   * @param  ExtiLine This parameter can be a combination of the following values:
 804:Drivers/STM32G4xx_HAL_Driver/Inc/stm32g4xx_ll_exti.h ****   *         @arg @ref LL_EXTI_LINE_0
 805:Drivers/STM32G4xx_HAL_Driver/Inc/stm32g4xx_ll_exti.h ****   *         @arg @ref LL_EXTI_LINE_1
ARM GAS  C:\Users\T1\AppData\Local\Temp\cciVZ2by.s 			page 32


 806:Drivers/STM32G4xx_HAL_Driver/Inc/stm32g4xx_ll_exti.h ****   *         @arg @ref LL_EXTI_LINE_2
 807:Drivers/STM32G4xx_HAL_Driver/Inc/stm32g4xx_ll_exti.h ****   *         @arg @ref LL_EXTI_LINE_3
 808:Drivers/STM32G4xx_HAL_Driver/Inc/stm32g4xx_ll_exti.h ****   *         @arg @ref LL_EXTI_LINE_4
 809:Drivers/STM32G4xx_HAL_Driver/Inc/stm32g4xx_ll_exti.h ****   *         @arg @ref LL_EXTI_LINE_5
 810:Drivers/STM32G4xx_HAL_Driver/Inc/stm32g4xx_ll_exti.h ****   *         @arg @ref LL_EXTI_LINE_6
 811:Drivers/STM32G4xx_HAL_Driver/Inc/stm32g4xx_ll_exti.h ****   *         @arg @ref LL_EXTI_LINE_7
 812:Drivers/STM32G4xx_HAL_Driver/Inc/stm32g4xx_ll_exti.h ****   *         @arg @ref LL_EXTI_LINE_8
 813:Drivers/STM32G4xx_HAL_Driver/Inc/stm32g4xx_ll_exti.h ****   *         @arg @ref LL_EXTI_LINE_9
 814:Drivers/STM32G4xx_HAL_Driver/Inc/stm32g4xx_ll_exti.h ****   *         @arg @ref LL_EXTI_LINE_10
 815:Drivers/STM32G4xx_HAL_Driver/Inc/stm32g4xx_ll_exti.h ****   *         @arg @ref LL_EXTI_LINE_11
 816:Drivers/STM32G4xx_HAL_Driver/Inc/stm32g4xx_ll_exti.h ****   *         @arg @ref LL_EXTI_LINE_12
 817:Drivers/STM32G4xx_HAL_Driver/Inc/stm32g4xx_ll_exti.h ****   *         @arg @ref LL_EXTI_LINE_13
 818:Drivers/STM32G4xx_HAL_Driver/Inc/stm32g4xx_ll_exti.h ****   *         @arg @ref LL_EXTI_LINE_14
 819:Drivers/STM32G4xx_HAL_Driver/Inc/stm32g4xx_ll_exti.h ****   *         @arg @ref LL_EXTI_LINE_15
 820:Drivers/STM32G4xx_HAL_Driver/Inc/stm32g4xx_ll_exti.h ****   *         @arg @ref LL_EXTI_LINE_16
 821:Drivers/STM32G4xx_HAL_Driver/Inc/stm32g4xx_ll_exti.h ****   *         @arg @ref LL_EXTI_LINE_18
 822:Drivers/STM32G4xx_HAL_Driver/Inc/stm32g4xx_ll_exti.h ****   *         @arg @ref LL_EXTI_LINE_19
 823:Drivers/STM32G4xx_HAL_Driver/Inc/stm32g4xx_ll_exti.h ****   *         @arg @ref LL_EXTI_LINE_20
 824:Drivers/STM32G4xx_HAL_Driver/Inc/stm32g4xx_ll_exti.h ****   *         @arg @ref LL_EXTI_LINE_21
 825:Drivers/STM32G4xx_HAL_Driver/Inc/stm32g4xx_ll_exti.h ****   *         @arg @ref LL_EXTI_LINE_22
 826:Drivers/STM32G4xx_HAL_Driver/Inc/stm32g4xx_ll_exti.h ****   *         @arg @ref LL_EXTI_LINE_29
 827:Drivers/STM32G4xx_HAL_Driver/Inc/stm32g4xx_ll_exti.h ****   *         @arg @ref LL_EXTI_LINE_30
 828:Drivers/STM32G4xx_HAL_Driver/Inc/stm32g4xx_ll_exti.h ****   *         @arg @ref LL_EXTI_LINE_31 (*)
 829:Drivers/STM32G4xx_HAL_Driver/Inc/stm32g4xx_ll_exti.h ****   * @note   (*): Available in some devices
 830:Drivers/STM32G4xx_HAL_Driver/Inc/stm32g4xx_ll_exti.h ****   * @note   Please check each device line mapping for EXTI Line availability
 831:Drivers/STM32G4xx_HAL_Driver/Inc/stm32g4xx_ll_exti.h ****   * @retval None
 832:Drivers/STM32G4xx_HAL_Driver/Inc/stm32g4xx_ll_exti.h ****   */
 833:Drivers/STM32G4xx_HAL_Driver/Inc/stm32g4xx_ll_exti.h **** __STATIC_INLINE void LL_EXTI_DisableRisingTrig_0_31(uint32_t ExtiLine)
 834:Drivers/STM32G4xx_HAL_Driver/Inc/stm32g4xx_ll_exti.h **** {
 835:Drivers/STM32G4xx_HAL_Driver/Inc/stm32g4xx_ll_exti.h ****   CLEAR_BIT(EXTI->RTSR1, ExtiLine);
 836:Drivers/STM32G4xx_HAL_Driver/Inc/stm32g4xx_ll_exti.h **** 
 837:Drivers/STM32G4xx_HAL_Driver/Inc/stm32g4xx_ll_exti.h **** }
 838:Drivers/STM32G4xx_HAL_Driver/Inc/stm32g4xx_ll_exti.h **** 
 839:Drivers/STM32G4xx_HAL_Driver/Inc/stm32g4xx_ll_exti.h **** /**
 840:Drivers/STM32G4xx_HAL_Driver/Inc/stm32g4xx_ll_exti.h ****   * @brief  Disable ExtiLine Rising Edge Trigger for Lines in range 32 to 63
 841:Drivers/STM32G4xx_HAL_Driver/Inc/stm32g4xx_ll_exti.h ****   * @note The configurable wakeup lines are edge-triggered. No glitch must be
 842:Drivers/STM32G4xx_HAL_Driver/Inc/stm32g4xx_ll_exti.h ****   *       generated on these lines. If a rising edge on a configurable interrupt
 843:Drivers/STM32G4xx_HAL_Driver/Inc/stm32g4xx_ll_exti.h ****   *       line occurs during a write operation in the EXTI_RTSR register, the
 844:Drivers/STM32G4xx_HAL_Driver/Inc/stm32g4xx_ll_exti.h ****   *       pending bit is not set.
 845:Drivers/STM32G4xx_HAL_Driver/Inc/stm32g4xx_ll_exti.h ****   *       Rising and falling edge triggers can be set for
 846:Drivers/STM32G4xx_HAL_Driver/Inc/stm32g4xx_ll_exti.h ****   *       the same interrupt line. In this case, both generate a trigger
 847:Drivers/STM32G4xx_HAL_Driver/Inc/stm32g4xx_ll_exti.h ****   *       condition.
 848:Drivers/STM32G4xx_HAL_Driver/Inc/stm32g4xx_ll_exti.h ****   * @rmtoll RTSR2        RTx           LL_EXTI_DisableRisingTrig_32_63
 849:Drivers/STM32G4xx_HAL_Driver/Inc/stm32g4xx_ll_exti.h ****   * @param  ExtiLine This parameter can be a combination of the following values:
 850:Drivers/STM32G4xx_HAL_Driver/Inc/stm32g4xx_ll_exti.h ****   *         @arg @ref LL_EXTI_LINE_32 (*)
 851:Drivers/STM32G4xx_HAL_Driver/Inc/stm32g4xx_ll_exti.h ****   *         @arg @ref LL_EXTI_LINE_33 (*)
 852:Drivers/STM32G4xx_HAL_Driver/Inc/stm32g4xx_ll_exti.h ****   *         @arg @ref LL_EXTI_LINE_38
 853:Drivers/STM32G4xx_HAL_Driver/Inc/stm32g4xx_ll_exti.h ****   *         @arg @ref LL_EXTI_LINE_39
 854:Drivers/STM32G4xx_HAL_Driver/Inc/stm32g4xx_ll_exti.h ****   *         @arg @ref LL_EXTI_LINE_40
 855:Drivers/STM32G4xx_HAL_Driver/Inc/stm32g4xx_ll_exti.h ****   *         @arg @ref LL_EXTI_LINE_41
 856:Drivers/STM32G4xx_HAL_Driver/Inc/stm32g4xx_ll_exti.h ****   * @note   (*): Available in some devices
 857:Drivers/STM32G4xx_HAL_Driver/Inc/stm32g4xx_ll_exti.h ****   * @retval None
 858:Drivers/STM32G4xx_HAL_Driver/Inc/stm32g4xx_ll_exti.h ****   */
 859:Drivers/STM32G4xx_HAL_Driver/Inc/stm32g4xx_ll_exti.h **** __STATIC_INLINE void LL_EXTI_DisableRisingTrig_32_63(uint32_t ExtiLine)
 860:Drivers/STM32G4xx_HAL_Driver/Inc/stm32g4xx_ll_exti.h **** {
 861:Drivers/STM32G4xx_HAL_Driver/Inc/stm32g4xx_ll_exti.h ****   CLEAR_BIT(EXTI->RTSR2, ExtiLine);
 862:Drivers/STM32G4xx_HAL_Driver/Inc/stm32g4xx_ll_exti.h **** }
ARM GAS  C:\Users\T1\AppData\Local\Temp\cciVZ2by.s 			page 33


 863:Drivers/STM32G4xx_HAL_Driver/Inc/stm32g4xx_ll_exti.h **** 
 864:Drivers/STM32G4xx_HAL_Driver/Inc/stm32g4xx_ll_exti.h **** /**
 865:Drivers/STM32G4xx_HAL_Driver/Inc/stm32g4xx_ll_exti.h ****   * @brief  Check if rising edge trigger is enabled for Lines in range 0 to 31
 866:Drivers/STM32G4xx_HAL_Driver/Inc/stm32g4xx_ll_exti.h ****   * @rmtoll RTSR1        RTx           LL_EXTI_IsEnabledRisingTrig_0_31
 867:Drivers/STM32G4xx_HAL_Driver/Inc/stm32g4xx_ll_exti.h ****   * @param  ExtiLine This parameter can be a combination of the following values:
 868:Drivers/STM32G4xx_HAL_Driver/Inc/stm32g4xx_ll_exti.h ****   *         @arg @ref LL_EXTI_LINE_0
 869:Drivers/STM32G4xx_HAL_Driver/Inc/stm32g4xx_ll_exti.h ****   *         @arg @ref LL_EXTI_LINE_1
 870:Drivers/STM32G4xx_HAL_Driver/Inc/stm32g4xx_ll_exti.h ****   *         @arg @ref LL_EXTI_LINE_2
 871:Drivers/STM32G4xx_HAL_Driver/Inc/stm32g4xx_ll_exti.h ****   *         @arg @ref LL_EXTI_LINE_3
 872:Drivers/STM32G4xx_HAL_Driver/Inc/stm32g4xx_ll_exti.h ****   *         @arg @ref LL_EXTI_LINE_4
 873:Drivers/STM32G4xx_HAL_Driver/Inc/stm32g4xx_ll_exti.h ****   *         @arg @ref LL_EXTI_LINE_5
 874:Drivers/STM32G4xx_HAL_Driver/Inc/stm32g4xx_ll_exti.h ****   *         @arg @ref LL_EXTI_LINE_6
 875:Drivers/STM32G4xx_HAL_Driver/Inc/stm32g4xx_ll_exti.h ****   *         @arg @ref LL_EXTI_LINE_7
 876:Drivers/STM32G4xx_HAL_Driver/Inc/stm32g4xx_ll_exti.h ****   *         @arg @ref LL_EXTI_LINE_8
 877:Drivers/STM32G4xx_HAL_Driver/Inc/stm32g4xx_ll_exti.h ****   *         @arg @ref LL_EXTI_LINE_9
 878:Drivers/STM32G4xx_HAL_Driver/Inc/stm32g4xx_ll_exti.h ****   *         @arg @ref LL_EXTI_LINE_10
 879:Drivers/STM32G4xx_HAL_Driver/Inc/stm32g4xx_ll_exti.h ****   *         @arg @ref LL_EXTI_LINE_11
 880:Drivers/STM32G4xx_HAL_Driver/Inc/stm32g4xx_ll_exti.h ****   *         @arg @ref LL_EXTI_LINE_12
 881:Drivers/STM32G4xx_HAL_Driver/Inc/stm32g4xx_ll_exti.h ****   *         @arg @ref LL_EXTI_LINE_13
 882:Drivers/STM32G4xx_HAL_Driver/Inc/stm32g4xx_ll_exti.h ****   *         @arg @ref LL_EXTI_LINE_14
 883:Drivers/STM32G4xx_HAL_Driver/Inc/stm32g4xx_ll_exti.h ****   *         @arg @ref LL_EXTI_LINE_15
 884:Drivers/STM32G4xx_HAL_Driver/Inc/stm32g4xx_ll_exti.h ****   *         @arg @ref LL_EXTI_LINE_16
 885:Drivers/STM32G4xx_HAL_Driver/Inc/stm32g4xx_ll_exti.h ****   *         @arg @ref LL_EXTI_LINE_18
 886:Drivers/STM32G4xx_HAL_Driver/Inc/stm32g4xx_ll_exti.h ****   *         @arg @ref LL_EXTI_LINE_19
 887:Drivers/STM32G4xx_HAL_Driver/Inc/stm32g4xx_ll_exti.h ****   *         @arg @ref LL_EXTI_LINE_20
 888:Drivers/STM32G4xx_HAL_Driver/Inc/stm32g4xx_ll_exti.h ****   *         @arg @ref LL_EXTI_LINE_21
 889:Drivers/STM32G4xx_HAL_Driver/Inc/stm32g4xx_ll_exti.h ****   *         @arg @ref LL_EXTI_LINE_22
 890:Drivers/STM32G4xx_HAL_Driver/Inc/stm32g4xx_ll_exti.h ****   *         @arg @ref LL_EXTI_LINE_29
 891:Drivers/STM32G4xx_HAL_Driver/Inc/stm32g4xx_ll_exti.h ****   *         @arg @ref LL_EXTI_LINE_30
 892:Drivers/STM32G4xx_HAL_Driver/Inc/stm32g4xx_ll_exti.h ****   *         @arg @ref LL_EXTI_LINE_31 (*)
 893:Drivers/STM32G4xx_HAL_Driver/Inc/stm32g4xx_ll_exti.h ****   * @note   (*): Available in some devices
 894:Drivers/STM32G4xx_HAL_Driver/Inc/stm32g4xx_ll_exti.h ****   * @note   Please check each device line mapping for EXTI Line availability
 895:Drivers/STM32G4xx_HAL_Driver/Inc/stm32g4xx_ll_exti.h ****   * @retval State of bit (1 or 0).
 896:Drivers/STM32G4xx_HAL_Driver/Inc/stm32g4xx_ll_exti.h ****   */
 897:Drivers/STM32G4xx_HAL_Driver/Inc/stm32g4xx_ll_exti.h **** __STATIC_INLINE uint32_t LL_EXTI_IsEnabledRisingTrig_0_31(uint32_t ExtiLine)
 898:Drivers/STM32G4xx_HAL_Driver/Inc/stm32g4xx_ll_exti.h **** {
 899:Drivers/STM32G4xx_HAL_Driver/Inc/stm32g4xx_ll_exti.h ****   return ((READ_BIT(EXTI->RTSR1, ExtiLine) == (ExtiLine)) ? 1UL : 0UL);
 900:Drivers/STM32G4xx_HAL_Driver/Inc/stm32g4xx_ll_exti.h **** }
 901:Drivers/STM32G4xx_HAL_Driver/Inc/stm32g4xx_ll_exti.h **** 
 902:Drivers/STM32G4xx_HAL_Driver/Inc/stm32g4xx_ll_exti.h **** /**
 903:Drivers/STM32G4xx_HAL_Driver/Inc/stm32g4xx_ll_exti.h ****   * @brief  Check if rising edge trigger is enabled for Lines in range 32 to 63
 904:Drivers/STM32G4xx_HAL_Driver/Inc/stm32g4xx_ll_exti.h ****   * @rmtoll RTSR2        RTx           LL_EXTI_IsEnabledRisingTrig_32_63
 905:Drivers/STM32G4xx_HAL_Driver/Inc/stm32g4xx_ll_exti.h ****   * @param  ExtiLine This parameter can be a combination of the following values:
 906:Drivers/STM32G4xx_HAL_Driver/Inc/stm32g4xx_ll_exti.h ****   *         @arg @ref LL_EXTI_LINE_32 (*)
 907:Drivers/STM32G4xx_HAL_Driver/Inc/stm32g4xx_ll_exti.h ****   *         @arg @ref LL_EXTI_LINE_33 (*)
 908:Drivers/STM32G4xx_HAL_Driver/Inc/stm32g4xx_ll_exti.h ****   *         @arg @ref LL_EXTI_LINE_38
 909:Drivers/STM32G4xx_HAL_Driver/Inc/stm32g4xx_ll_exti.h ****   *         @arg @ref LL_EXTI_LINE_39
 910:Drivers/STM32G4xx_HAL_Driver/Inc/stm32g4xx_ll_exti.h ****   *         @arg @ref LL_EXTI_LINE_40
 911:Drivers/STM32G4xx_HAL_Driver/Inc/stm32g4xx_ll_exti.h ****   *         @arg @ref LL_EXTI_LINE_41
 912:Drivers/STM32G4xx_HAL_Driver/Inc/stm32g4xx_ll_exti.h ****   * @note   (*): Available in some devices
 913:Drivers/STM32G4xx_HAL_Driver/Inc/stm32g4xx_ll_exti.h ****   * @retval State of bit (1 or 0).
 914:Drivers/STM32G4xx_HAL_Driver/Inc/stm32g4xx_ll_exti.h ****   */
 915:Drivers/STM32G4xx_HAL_Driver/Inc/stm32g4xx_ll_exti.h **** __STATIC_INLINE uint32_t LL_EXTI_IsEnabledRisingTrig_32_63(uint32_t ExtiLine)
 916:Drivers/STM32G4xx_HAL_Driver/Inc/stm32g4xx_ll_exti.h **** {
 917:Drivers/STM32G4xx_HAL_Driver/Inc/stm32g4xx_ll_exti.h ****   return ((READ_BIT(EXTI->RTSR2, ExtiLine) == (ExtiLine)) ? 1UL : 0UL);
 918:Drivers/STM32G4xx_HAL_Driver/Inc/stm32g4xx_ll_exti.h **** }
 919:Drivers/STM32G4xx_HAL_Driver/Inc/stm32g4xx_ll_exti.h **** 
ARM GAS  C:\Users\T1\AppData\Local\Temp\cciVZ2by.s 			page 34


 920:Drivers/STM32G4xx_HAL_Driver/Inc/stm32g4xx_ll_exti.h **** /**
 921:Drivers/STM32G4xx_HAL_Driver/Inc/stm32g4xx_ll_exti.h ****   * @}
 922:Drivers/STM32G4xx_HAL_Driver/Inc/stm32g4xx_ll_exti.h ****   */
 923:Drivers/STM32G4xx_HAL_Driver/Inc/stm32g4xx_ll_exti.h **** 
 924:Drivers/STM32G4xx_HAL_Driver/Inc/stm32g4xx_ll_exti.h **** /** @defgroup EXTI_LL_EF_Falling_Trigger_Management Falling_Trigger_Management
 925:Drivers/STM32G4xx_HAL_Driver/Inc/stm32g4xx_ll_exti.h ****   * @{
 926:Drivers/STM32G4xx_HAL_Driver/Inc/stm32g4xx_ll_exti.h ****   */
 927:Drivers/STM32G4xx_HAL_Driver/Inc/stm32g4xx_ll_exti.h **** 
 928:Drivers/STM32G4xx_HAL_Driver/Inc/stm32g4xx_ll_exti.h **** /**
 929:Drivers/STM32G4xx_HAL_Driver/Inc/stm32g4xx_ll_exti.h ****   * @brief  Enable ExtiLine Falling Edge Trigger for Lines in range 0 to 31
 930:Drivers/STM32G4xx_HAL_Driver/Inc/stm32g4xx_ll_exti.h ****   * @note The configurable wakeup lines are edge-triggered. No glitch must be
 931:Drivers/STM32G4xx_HAL_Driver/Inc/stm32g4xx_ll_exti.h ****   *       generated on these lines. If a falling edge on a configurable interrupt
 932:Drivers/STM32G4xx_HAL_Driver/Inc/stm32g4xx_ll_exti.h ****   *       line occurs during a write operation in the EXTI_FTSR register, the
 933:Drivers/STM32G4xx_HAL_Driver/Inc/stm32g4xx_ll_exti.h ****   *       pending bit is not set.
 934:Drivers/STM32G4xx_HAL_Driver/Inc/stm32g4xx_ll_exti.h ****   *       Rising and falling edge triggers can be set for
 935:Drivers/STM32G4xx_HAL_Driver/Inc/stm32g4xx_ll_exti.h ****   *       the same interrupt line. In this case, both generate a trigger
 936:Drivers/STM32G4xx_HAL_Driver/Inc/stm32g4xx_ll_exti.h ****   *       condition.
 937:Drivers/STM32G4xx_HAL_Driver/Inc/stm32g4xx_ll_exti.h ****   * @rmtoll FTSR1        FTx           LL_EXTI_EnableFallingTrig_0_31
 938:Drivers/STM32G4xx_HAL_Driver/Inc/stm32g4xx_ll_exti.h ****   * @param  ExtiLine This parameter can be a combination of the following values:
 939:Drivers/STM32G4xx_HAL_Driver/Inc/stm32g4xx_ll_exti.h ****   *         @arg @ref LL_EXTI_LINE_0
 940:Drivers/STM32G4xx_HAL_Driver/Inc/stm32g4xx_ll_exti.h ****   *         @arg @ref LL_EXTI_LINE_1
 941:Drivers/STM32G4xx_HAL_Driver/Inc/stm32g4xx_ll_exti.h ****   *         @arg @ref LL_EXTI_LINE_2
 942:Drivers/STM32G4xx_HAL_Driver/Inc/stm32g4xx_ll_exti.h ****   *         @arg @ref LL_EXTI_LINE_3
 943:Drivers/STM32G4xx_HAL_Driver/Inc/stm32g4xx_ll_exti.h ****   *         @arg @ref LL_EXTI_LINE_4
 944:Drivers/STM32G4xx_HAL_Driver/Inc/stm32g4xx_ll_exti.h ****   *         @arg @ref LL_EXTI_LINE_5
 945:Drivers/STM32G4xx_HAL_Driver/Inc/stm32g4xx_ll_exti.h ****   *         @arg @ref LL_EXTI_LINE_6
 946:Drivers/STM32G4xx_HAL_Driver/Inc/stm32g4xx_ll_exti.h ****   *         @arg @ref LL_EXTI_LINE_7
 947:Drivers/STM32G4xx_HAL_Driver/Inc/stm32g4xx_ll_exti.h ****   *         @arg @ref LL_EXTI_LINE_8
 948:Drivers/STM32G4xx_HAL_Driver/Inc/stm32g4xx_ll_exti.h ****   *         @arg @ref LL_EXTI_LINE_9
 949:Drivers/STM32G4xx_HAL_Driver/Inc/stm32g4xx_ll_exti.h ****   *         @arg @ref LL_EXTI_LINE_10
 950:Drivers/STM32G4xx_HAL_Driver/Inc/stm32g4xx_ll_exti.h ****   *         @arg @ref LL_EXTI_LINE_11
 951:Drivers/STM32G4xx_HAL_Driver/Inc/stm32g4xx_ll_exti.h ****   *         @arg @ref LL_EXTI_LINE_12
 952:Drivers/STM32G4xx_HAL_Driver/Inc/stm32g4xx_ll_exti.h ****   *         @arg @ref LL_EXTI_LINE_13
 953:Drivers/STM32G4xx_HAL_Driver/Inc/stm32g4xx_ll_exti.h ****   *         @arg @ref LL_EXTI_LINE_14
 954:Drivers/STM32G4xx_HAL_Driver/Inc/stm32g4xx_ll_exti.h ****   *         @arg @ref LL_EXTI_LINE_15
 955:Drivers/STM32G4xx_HAL_Driver/Inc/stm32g4xx_ll_exti.h ****   *         @arg @ref LL_EXTI_LINE_16
 956:Drivers/STM32G4xx_HAL_Driver/Inc/stm32g4xx_ll_exti.h ****   *         @arg @ref LL_EXTI_LINE_18
 957:Drivers/STM32G4xx_HAL_Driver/Inc/stm32g4xx_ll_exti.h ****   *         @arg @ref LL_EXTI_LINE_19
 958:Drivers/STM32G4xx_HAL_Driver/Inc/stm32g4xx_ll_exti.h ****   *         @arg @ref LL_EXTI_LINE_20
 959:Drivers/STM32G4xx_HAL_Driver/Inc/stm32g4xx_ll_exti.h ****   *         @arg @ref LL_EXTI_LINE_21
 960:Drivers/STM32G4xx_HAL_Driver/Inc/stm32g4xx_ll_exti.h ****   *         @arg @ref LL_EXTI_LINE_22
 961:Drivers/STM32G4xx_HAL_Driver/Inc/stm32g4xx_ll_exti.h ****   *         @arg @ref LL_EXTI_LINE_29
 962:Drivers/STM32G4xx_HAL_Driver/Inc/stm32g4xx_ll_exti.h ****   *         @arg @ref LL_EXTI_LINE_30
 963:Drivers/STM32G4xx_HAL_Driver/Inc/stm32g4xx_ll_exti.h ****   *         @arg @ref LL_EXTI_LINE_31 (*)
 964:Drivers/STM32G4xx_HAL_Driver/Inc/stm32g4xx_ll_exti.h ****   * @note   (*): Available in some devices
 965:Drivers/STM32G4xx_HAL_Driver/Inc/stm32g4xx_ll_exti.h ****   * @note   Please check each device line mapping for EXTI Line availability
 966:Drivers/STM32G4xx_HAL_Driver/Inc/stm32g4xx_ll_exti.h ****   * @retval None
 967:Drivers/STM32G4xx_HAL_Driver/Inc/stm32g4xx_ll_exti.h ****   */
 968:Drivers/STM32G4xx_HAL_Driver/Inc/stm32g4xx_ll_exti.h **** __STATIC_INLINE void LL_EXTI_EnableFallingTrig_0_31(uint32_t ExtiLine)
 308              		.loc 2 968 22 view .LVU92
 309              	.LBB59:
 969:Drivers/STM32G4xx_HAL_Driver/Inc/stm32g4xx_ll_exti.h **** {
 970:Drivers/STM32G4xx_HAL_Driver/Inc/stm32g4xx_ll_exti.h ****   SET_BIT(EXTI->FTSR1, ExtiLine);
 310              		.loc 2 970 3 view .LVU93
 311 010a 6249     		ldr	r1, .L54+20
 312 010c CA68     		ldr	r2, [r1, #12]
 313 010e 1A43     		orrs	r2, r2, r3
ARM GAS  C:\Users\T1\AppData\Local\Temp\cciVZ2by.s 			page 35


 314 0110 CA60     		str	r2, [r1, #12]
 971:Drivers/STM32G4xx_HAL_Driver/Inc/stm32g4xx_ll_exti.h **** }
 315              		.loc 2 971 1 is_stmt 0 view .LVU94
 316 0112 15E0     		b	.L19
 317              	.LVL16:
 318              	.L10:
 319              		.loc 2 971 1 view .LVU95
 320              	.LBE59:
 321              	.LBE58:
 346:Drivers/STM32G4xx_HAL_Driver/Src/stm32g4xx_hal_comp.c ****         {
 322              		.loc 1 346 9 is_stmt 1 view .LVU96
 346:Drivers/STM32G4xx_HAL_Driver/Src/stm32g4xx_hal_comp.c ****         {
 323              		.loc 1 346 11 is_stmt 0 view .LVU97
 324 0114 5E49     		ldr	r1, .L54+16
 325 0116 8A42     		cmp	r2, r1
 326 0118 08D0     		beq	.L14
 346:Drivers/STM32G4xx_HAL_Driver/Src/stm32g4xx_hal_comp.c ****         {
 327              		.loc 1 346 39 discriminator 1 view .LVU98
 328 011a 0431     		adds	r1, r1, #4
 329 011c 8A42     		cmp	r2, r1
 330 011e 05D0     		beq	.L14
 352:Drivers/STM32G4xx_HAL_Driver/Src/stm32g4xx_hal_comp.c ****         }
 331              		.loc 1 352 11 is_stmt 1 view .LVU99
 332              	.LVL17:
 333              	.LBB60:
 334              	.LBI60:
 833:Drivers/STM32G4xx_HAL_Driver/Inc/stm32g4xx_ll_exti.h **** {
 335              		.loc 2 833 22 view .LVU100
 336              	.LBB61:
 835:Drivers/STM32G4xx_HAL_Driver/Inc/stm32g4xx_ll_exti.h **** 
 337              		.loc 2 835 3 view .LVU101
 338 0120 5C49     		ldr	r1, .L54+20
 339 0122 8A68     		ldr	r2, [r1, #8]
 340 0124 22EA0302 		bic	r2, r2, r3
 341 0128 8A60     		str	r2, [r1, #8]
 837:Drivers/STM32G4xx_HAL_Driver/Inc/stm32g4xx_ll_exti.h **** 
 342              		.loc 2 837 1 is_stmt 0 view .LVU102
 343 012a E3E7     		b	.L13
 344              	.LVL18:
 345              	.L14:
 837:Drivers/STM32G4xx_HAL_Driver/Inc/stm32g4xx_ll_exti.h **** 
 346              		.loc 2 837 1 view .LVU103
 347              	.LBE61:
 348              	.LBE60:
 348:Drivers/STM32G4xx_HAL_Driver/Src/stm32g4xx_hal_comp.c ****         }
 349              		.loc 1 348 11 is_stmt 1 view .LVU104
 350              	.LBB62:
 351              	.LBI62:
 859:Drivers/STM32G4xx_HAL_Driver/Inc/stm32g4xx_ll_exti.h **** {
 352              		.loc 2 859 22 view .LVU105
 353              	.LBB63:
 861:Drivers/STM32G4xx_HAL_Driver/Inc/stm32g4xx_ll_exti.h **** }
 354              		.loc 2 861 3 view .LVU106
 355 012c 5949     		ldr	r1, .L54+20
 356 012e 8A6A     		ldr	r2, [r1, #40]
 357 0130 22EA0302 		bic	r2, r2, r3
 358 0134 8A62     		str	r2, [r1, #40]
ARM GAS  C:\Users\T1\AppData\Local\Temp\cciVZ2by.s 			page 36


 862:Drivers/STM32G4xx_HAL_Driver/Inc/stm32g4xx_ll_exti.h **** 
 359              		.loc 2 862 1 is_stmt 0 view .LVU107
 360 0136 DDE7     		b	.L13
 361              	.LVL19:
 362              	.L17:
 862:Drivers/STM32G4xx_HAL_Driver/Inc/stm32g4xx_ll_exti.h **** 
 363              		.loc 2 862 1 view .LVU108
 364              	.LBE63:
 365              	.LBE62:
 365:Drivers/STM32G4xx_HAL_Driver/Src/stm32g4xx_hal_comp.c ****         }
 366              		.loc 1 365 11 is_stmt 1 view .LVU109
 367              	.LBB64:
 368              	.LBI64:
 972:Drivers/STM32G4xx_HAL_Driver/Inc/stm32g4xx_ll_exti.h **** 
 973:Drivers/STM32G4xx_HAL_Driver/Inc/stm32g4xx_ll_exti.h **** /**
 974:Drivers/STM32G4xx_HAL_Driver/Inc/stm32g4xx_ll_exti.h ****   * @brief  Enable ExtiLine Falling Edge Trigger for Lines in range 32 to 63
 975:Drivers/STM32G4xx_HAL_Driver/Inc/stm32g4xx_ll_exti.h ****   * @note The configurable wakeup lines are edge-triggered. No glitch must be
 976:Drivers/STM32G4xx_HAL_Driver/Inc/stm32g4xx_ll_exti.h ****   *       generated on these lines. If a Falling edge on a configurable interrupt
 977:Drivers/STM32G4xx_HAL_Driver/Inc/stm32g4xx_ll_exti.h ****   *       line occurs during a write operation in the EXTI_FTSR register, the
 978:Drivers/STM32G4xx_HAL_Driver/Inc/stm32g4xx_ll_exti.h ****   *       pending bit is not set.
 979:Drivers/STM32G4xx_HAL_Driver/Inc/stm32g4xx_ll_exti.h ****   *       Rising and falling edge triggers can be set for
 980:Drivers/STM32G4xx_HAL_Driver/Inc/stm32g4xx_ll_exti.h ****   *       the same interrupt line. In this case, both generate a trigger
 981:Drivers/STM32G4xx_HAL_Driver/Inc/stm32g4xx_ll_exti.h ****   *       condition.
 982:Drivers/STM32G4xx_HAL_Driver/Inc/stm32g4xx_ll_exti.h ****   * @rmtoll FTSR2        FTx           LL_EXTI_EnableFallingTrig_32_63
 983:Drivers/STM32G4xx_HAL_Driver/Inc/stm32g4xx_ll_exti.h ****   * @param  ExtiLine This parameter can be a combination of the following values:
 984:Drivers/STM32G4xx_HAL_Driver/Inc/stm32g4xx_ll_exti.h ****   *         @arg @ref LL_EXTI_LINE_32 (*)
 985:Drivers/STM32G4xx_HAL_Driver/Inc/stm32g4xx_ll_exti.h ****   *         @arg @ref LL_EXTI_LINE_33 (*)
 986:Drivers/STM32G4xx_HAL_Driver/Inc/stm32g4xx_ll_exti.h ****   *         @arg @ref LL_EXTI_LINE_38
 987:Drivers/STM32G4xx_HAL_Driver/Inc/stm32g4xx_ll_exti.h ****   *         @arg @ref LL_EXTI_LINE_39
 988:Drivers/STM32G4xx_HAL_Driver/Inc/stm32g4xx_ll_exti.h ****   *         @arg @ref LL_EXTI_LINE_40
 989:Drivers/STM32G4xx_HAL_Driver/Inc/stm32g4xx_ll_exti.h ****   *         @arg @ref LL_EXTI_LINE_41
 990:Drivers/STM32G4xx_HAL_Driver/Inc/stm32g4xx_ll_exti.h ****   * @note   (*): Available in some devices
 991:Drivers/STM32G4xx_HAL_Driver/Inc/stm32g4xx_ll_exti.h ****   * @retval None
 992:Drivers/STM32G4xx_HAL_Driver/Inc/stm32g4xx_ll_exti.h ****   */
 993:Drivers/STM32G4xx_HAL_Driver/Inc/stm32g4xx_ll_exti.h **** __STATIC_INLINE void LL_EXTI_EnableFallingTrig_32_63(uint32_t ExtiLine)
 369              		.loc 2 993 22 view .LVU110
 370              	.LBB65:
 994:Drivers/STM32G4xx_HAL_Driver/Inc/stm32g4xx_ll_exti.h **** {
 995:Drivers/STM32G4xx_HAL_Driver/Inc/stm32g4xx_ll_exti.h ****   SET_BIT(EXTI->FTSR2, ExtiLine);
 371              		.loc 2 995 3 view .LVU111
 372 0138 5649     		ldr	r1, .L54+20
 373 013a CA6A     		ldr	r2, [r1, #44]
 374 013c 1A43     		orrs	r2, r2, r3
 375 013e CA62     		str	r2, [r1, #44]
 376              	.LVL20:
 377              	.L19:
 378              		.loc 2 995 3 is_stmt 0 view .LVU112
 379              	.LBE65:
 380              	.LBE64:
 393:Drivers/STM32G4xx_HAL_Driver/Src/stm32g4xx_hal_comp.c ****       {
 381              		.loc 1 393 7 is_stmt 1 view .LVU113
 393:Drivers/STM32G4xx_HAL_Driver/Src/stm32g4xx_hal_comp.c ****       {
 382              		.loc 1 393 16 is_stmt 0 view .LVU114
 383 0140 2268     		ldr	r2, [r4]
 393:Drivers/STM32G4xx_HAL_Driver/Src/stm32g4xx_hal_comp.c ****       {
 384              		.loc 1 393 9 view .LVU115
 385 0142 5349     		ldr	r1, .L54+16
ARM GAS  C:\Users\T1\AppData\Local\Temp\cciVZ2by.s 			page 37


 386 0144 8A42     		cmp	r2, r1
 387 0146 18D0     		beq	.L22
 393:Drivers/STM32G4xx_HAL_Driver/Src/stm32g4xx_hal_comp.c ****       {
 388              		.loc 1 393 37 discriminator 1 view .LVU116
 389 0148 0431     		adds	r1, r1, #4
 390 014a 8A42     		cmp	r2, r1
 391 014c 15D0     		beq	.L22
 399:Drivers/STM32G4xx_HAL_Driver/Src/stm32g4xx_hal_comp.c ****       }
 392              		.loc 1 399 9 is_stmt 1 view .LVU117
 393              	.LVL21:
 394              	.LBB66:
 395              	.LBI66:
 996:Drivers/STM32G4xx_HAL_Driver/Inc/stm32g4xx_ll_exti.h **** }
 997:Drivers/STM32G4xx_HAL_Driver/Inc/stm32g4xx_ll_exti.h **** 
 998:Drivers/STM32G4xx_HAL_Driver/Inc/stm32g4xx_ll_exti.h **** /**
 999:Drivers/STM32G4xx_HAL_Driver/Inc/stm32g4xx_ll_exti.h ****   * @brief  Disable ExtiLine Falling Edge Trigger for Lines in range 0 to 31
1000:Drivers/STM32G4xx_HAL_Driver/Inc/stm32g4xx_ll_exti.h ****   * @note The configurable wakeup lines are edge-triggered. No glitch must be
1001:Drivers/STM32G4xx_HAL_Driver/Inc/stm32g4xx_ll_exti.h ****   *       generated on these lines. If a Falling edge on a configurable interrupt
1002:Drivers/STM32G4xx_HAL_Driver/Inc/stm32g4xx_ll_exti.h ****   *       line occurs during a write operation in the EXTI_FTSR register, the
1003:Drivers/STM32G4xx_HAL_Driver/Inc/stm32g4xx_ll_exti.h ****   *       pending bit is not set.
1004:Drivers/STM32G4xx_HAL_Driver/Inc/stm32g4xx_ll_exti.h ****   *       Rising and falling edge triggers can be set for the same interrupt line.
1005:Drivers/STM32G4xx_HAL_Driver/Inc/stm32g4xx_ll_exti.h ****   *       In this case, both generate a trigger condition.
1006:Drivers/STM32G4xx_HAL_Driver/Inc/stm32g4xx_ll_exti.h ****   * @rmtoll FTSR1        FTx           LL_EXTI_DisableFallingTrig_0_31
1007:Drivers/STM32G4xx_HAL_Driver/Inc/stm32g4xx_ll_exti.h ****   * @param  ExtiLine This parameter can be a combination of the following values:
1008:Drivers/STM32G4xx_HAL_Driver/Inc/stm32g4xx_ll_exti.h ****   *         @arg @ref LL_EXTI_LINE_0
1009:Drivers/STM32G4xx_HAL_Driver/Inc/stm32g4xx_ll_exti.h ****   *         @arg @ref LL_EXTI_LINE_1
1010:Drivers/STM32G4xx_HAL_Driver/Inc/stm32g4xx_ll_exti.h ****   *         @arg @ref LL_EXTI_LINE_2
1011:Drivers/STM32G4xx_HAL_Driver/Inc/stm32g4xx_ll_exti.h ****   *         @arg @ref LL_EXTI_LINE_3
1012:Drivers/STM32G4xx_HAL_Driver/Inc/stm32g4xx_ll_exti.h ****   *         @arg @ref LL_EXTI_LINE_4
1013:Drivers/STM32G4xx_HAL_Driver/Inc/stm32g4xx_ll_exti.h ****   *         @arg @ref LL_EXTI_LINE_5
1014:Drivers/STM32G4xx_HAL_Driver/Inc/stm32g4xx_ll_exti.h ****   *         @arg @ref LL_EXTI_LINE_6
1015:Drivers/STM32G4xx_HAL_Driver/Inc/stm32g4xx_ll_exti.h ****   *         @arg @ref LL_EXTI_LINE_7
1016:Drivers/STM32G4xx_HAL_Driver/Inc/stm32g4xx_ll_exti.h ****   *         @arg @ref LL_EXTI_LINE_8
1017:Drivers/STM32G4xx_HAL_Driver/Inc/stm32g4xx_ll_exti.h ****   *         @arg @ref LL_EXTI_LINE_9
1018:Drivers/STM32G4xx_HAL_Driver/Inc/stm32g4xx_ll_exti.h ****   *         @arg @ref LL_EXTI_LINE_10
1019:Drivers/STM32G4xx_HAL_Driver/Inc/stm32g4xx_ll_exti.h ****   *         @arg @ref LL_EXTI_LINE_11
1020:Drivers/STM32G4xx_HAL_Driver/Inc/stm32g4xx_ll_exti.h ****   *         @arg @ref LL_EXTI_LINE_12
1021:Drivers/STM32G4xx_HAL_Driver/Inc/stm32g4xx_ll_exti.h ****   *         @arg @ref LL_EXTI_LINE_13
1022:Drivers/STM32G4xx_HAL_Driver/Inc/stm32g4xx_ll_exti.h ****   *         @arg @ref LL_EXTI_LINE_14
1023:Drivers/STM32G4xx_HAL_Driver/Inc/stm32g4xx_ll_exti.h ****   *         @arg @ref LL_EXTI_LINE_15
1024:Drivers/STM32G4xx_HAL_Driver/Inc/stm32g4xx_ll_exti.h ****   *         @arg @ref LL_EXTI_LINE_16
1025:Drivers/STM32G4xx_HAL_Driver/Inc/stm32g4xx_ll_exti.h ****   *         @arg @ref LL_EXTI_LINE_18
1026:Drivers/STM32G4xx_HAL_Driver/Inc/stm32g4xx_ll_exti.h ****   *         @arg @ref LL_EXTI_LINE_19
1027:Drivers/STM32G4xx_HAL_Driver/Inc/stm32g4xx_ll_exti.h ****   *         @arg @ref LL_EXTI_LINE_20
1028:Drivers/STM32G4xx_HAL_Driver/Inc/stm32g4xx_ll_exti.h ****   *         @arg @ref LL_EXTI_LINE_21
1029:Drivers/STM32G4xx_HAL_Driver/Inc/stm32g4xx_ll_exti.h ****   *         @arg @ref LL_EXTI_LINE_22
1030:Drivers/STM32G4xx_HAL_Driver/Inc/stm32g4xx_ll_exti.h ****   *         @arg @ref LL_EXTI_LINE_29
1031:Drivers/STM32G4xx_HAL_Driver/Inc/stm32g4xx_ll_exti.h ****   *         @arg @ref LL_EXTI_LINE_30
1032:Drivers/STM32G4xx_HAL_Driver/Inc/stm32g4xx_ll_exti.h ****   *         @arg @ref LL_EXTI_LINE_31 (*)
1033:Drivers/STM32G4xx_HAL_Driver/Inc/stm32g4xx_ll_exti.h ****   * @note   (*): Available in some devices
1034:Drivers/STM32G4xx_HAL_Driver/Inc/stm32g4xx_ll_exti.h ****   * @note   Please check each device line mapping for EXTI Line availability
1035:Drivers/STM32G4xx_HAL_Driver/Inc/stm32g4xx_ll_exti.h ****   * @retval None
1036:Drivers/STM32G4xx_HAL_Driver/Inc/stm32g4xx_ll_exti.h ****   */
1037:Drivers/STM32G4xx_HAL_Driver/Inc/stm32g4xx_ll_exti.h **** __STATIC_INLINE void LL_EXTI_DisableFallingTrig_0_31(uint32_t ExtiLine)
1038:Drivers/STM32G4xx_HAL_Driver/Inc/stm32g4xx_ll_exti.h **** {
1039:Drivers/STM32G4xx_HAL_Driver/Inc/stm32g4xx_ll_exti.h ****   CLEAR_BIT(EXTI->FTSR1, ExtiLine);
1040:Drivers/STM32G4xx_HAL_Driver/Inc/stm32g4xx_ll_exti.h **** }
ARM GAS  C:\Users\T1\AppData\Local\Temp\cciVZ2by.s 			page 38


1041:Drivers/STM32G4xx_HAL_Driver/Inc/stm32g4xx_ll_exti.h **** 
1042:Drivers/STM32G4xx_HAL_Driver/Inc/stm32g4xx_ll_exti.h **** /**
1043:Drivers/STM32G4xx_HAL_Driver/Inc/stm32g4xx_ll_exti.h ****   * @brief  Disable ExtiLine Falling Edge Trigger for Lines in range 32 to 63
1044:Drivers/STM32G4xx_HAL_Driver/Inc/stm32g4xx_ll_exti.h ****   * @note The configurable wakeup lines are edge-triggered. No glitch must be
1045:Drivers/STM32G4xx_HAL_Driver/Inc/stm32g4xx_ll_exti.h ****   *       generated on these lines. If a Falling edge on a configurable interrupt
1046:Drivers/STM32G4xx_HAL_Driver/Inc/stm32g4xx_ll_exti.h ****   *       line occurs during a write operation in the EXTI_FTSR register, the
1047:Drivers/STM32G4xx_HAL_Driver/Inc/stm32g4xx_ll_exti.h ****   *       pending bit is not set.
1048:Drivers/STM32G4xx_HAL_Driver/Inc/stm32g4xx_ll_exti.h ****   *       Rising and falling edge triggers can be set for the same interrupt line.
1049:Drivers/STM32G4xx_HAL_Driver/Inc/stm32g4xx_ll_exti.h ****   *       In this case, both generate a trigger condition.
1050:Drivers/STM32G4xx_HAL_Driver/Inc/stm32g4xx_ll_exti.h ****   * @rmtoll FTSR2        FTx           LL_EXTI_DisableFallingTrig_32_63
1051:Drivers/STM32G4xx_HAL_Driver/Inc/stm32g4xx_ll_exti.h ****   * @param  ExtiLine This parameter can be a combination of the following values:
1052:Drivers/STM32G4xx_HAL_Driver/Inc/stm32g4xx_ll_exti.h ****   *         @arg @ref LL_EXTI_LINE_32 (*)
1053:Drivers/STM32G4xx_HAL_Driver/Inc/stm32g4xx_ll_exti.h ****   *         @arg @ref LL_EXTI_LINE_33 (*)
1054:Drivers/STM32G4xx_HAL_Driver/Inc/stm32g4xx_ll_exti.h ****   *         @arg @ref LL_EXTI_LINE_38
1055:Drivers/STM32G4xx_HAL_Driver/Inc/stm32g4xx_ll_exti.h ****   *         @arg @ref LL_EXTI_LINE_39
1056:Drivers/STM32G4xx_HAL_Driver/Inc/stm32g4xx_ll_exti.h ****   *         @arg @ref LL_EXTI_LINE_40
1057:Drivers/STM32G4xx_HAL_Driver/Inc/stm32g4xx_ll_exti.h ****   *         @arg @ref LL_EXTI_LINE_41
1058:Drivers/STM32G4xx_HAL_Driver/Inc/stm32g4xx_ll_exti.h ****   * @note   (*): Available in some devices
1059:Drivers/STM32G4xx_HAL_Driver/Inc/stm32g4xx_ll_exti.h ****   * @retval None
1060:Drivers/STM32G4xx_HAL_Driver/Inc/stm32g4xx_ll_exti.h ****   */
1061:Drivers/STM32G4xx_HAL_Driver/Inc/stm32g4xx_ll_exti.h **** __STATIC_INLINE void LL_EXTI_DisableFallingTrig_32_63(uint32_t ExtiLine)
1062:Drivers/STM32G4xx_HAL_Driver/Inc/stm32g4xx_ll_exti.h **** {
1063:Drivers/STM32G4xx_HAL_Driver/Inc/stm32g4xx_ll_exti.h ****   CLEAR_BIT(EXTI->FTSR2, ExtiLine);
1064:Drivers/STM32G4xx_HAL_Driver/Inc/stm32g4xx_ll_exti.h **** }
1065:Drivers/STM32G4xx_HAL_Driver/Inc/stm32g4xx_ll_exti.h **** 
1066:Drivers/STM32G4xx_HAL_Driver/Inc/stm32g4xx_ll_exti.h **** /**
1067:Drivers/STM32G4xx_HAL_Driver/Inc/stm32g4xx_ll_exti.h ****   * @brief  Check if falling edge trigger is enabled for Lines in range 0 to 31
1068:Drivers/STM32G4xx_HAL_Driver/Inc/stm32g4xx_ll_exti.h ****   * @rmtoll FTSR1        FTx           LL_EXTI_IsEnabledFallingTrig_0_31
1069:Drivers/STM32G4xx_HAL_Driver/Inc/stm32g4xx_ll_exti.h ****   * @param  ExtiLine This parameter can be a combination of the following values:
1070:Drivers/STM32G4xx_HAL_Driver/Inc/stm32g4xx_ll_exti.h ****   *         @arg @ref LL_EXTI_LINE_0
1071:Drivers/STM32G4xx_HAL_Driver/Inc/stm32g4xx_ll_exti.h ****   *         @arg @ref LL_EXTI_LINE_1
1072:Drivers/STM32G4xx_HAL_Driver/Inc/stm32g4xx_ll_exti.h ****   *         @arg @ref LL_EXTI_LINE_2
1073:Drivers/STM32G4xx_HAL_Driver/Inc/stm32g4xx_ll_exti.h ****   *         @arg @ref LL_EXTI_LINE_3
1074:Drivers/STM32G4xx_HAL_Driver/Inc/stm32g4xx_ll_exti.h ****   *         @arg @ref LL_EXTI_LINE_4
1075:Drivers/STM32G4xx_HAL_Driver/Inc/stm32g4xx_ll_exti.h ****   *         @arg @ref LL_EXTI_LINE_5
1076:Drivers/STM32G4xx_HAL_Driver/Inc/stm32g4xx_ll_exti.h ****   *         @arg @ref LL_EXTI_LINE_6
1077:Drivers/STM32G4xx_HAL_Driver/Inc/stm32g4xx_ll_exti.h ****   *         @arg @ref LL_EXTI_LINE_7
1078:Drivers/STM32G4xx_HAL_Driver/Inc/stm32g4xx_ll_exti.h ****   *         @arg @ref LL_EXTI_LINE_8
1079:Drivers/STM32G4xx_HAL_Driver/Inc/stm32g4xx_ll_exti.h ****   *         @arg @ref LL_EXTI_LINE_9
1080:Drivers/STM32G4xx_HAL_Driver/Inc/stm32g4xx_ll_exti.h ****   *         @arg @ref LL_EXTI_LINE_10
1081:Drivers/STM32G4xx_HAL_Driver/Inc/stm32g4xx_ll_exti.h ****   *         @arg @ref LL_EXTI_LINE_11
1082:Drivers/STM32G4xx_HAL_Driver/Inc/stm32g4xx_ll_exti.h ****   *         @arg @ref LL_EXTI_LINE_12
1083:Drivers/STM32G4xx_HAL_Driver/Inc/stm32g4xx_ll_exti.h ****   *         @arg @ref LL_EXTI_LINE_13
1084:Drivers/STM32G4xx_HAL_Driver/Inc/stm32g4xx_ll_exti.h ****   *         @arg @ref LL_EXTI_LINE_14
1085:Drivers/STM32G4xx_HAL_Driver/Inc/stm32g4xx_ll_exti.h ****   *         @arg @ref LL_EXTI_LINE_15
1086:Drivers/STM32G4xx_HAL_Driver/Inc/stm32g4xx_ll_exti.h ****   *         @arg @ref LL_EXTI_LINE_16
1087:Drivers/STM32G4xx_HAL_Driver/Inc/stm32g4xx_ll_exti.h ****   *         @arg @ref LL_EXTI_LINE_18
1088:Drivers/STM32G4xx_HAL_Driver/Inc/stm32g4xx_ll_exti.h ****   *         @arg @ref LL_EXTI_LINE_19
1089:Drivers/STM32G4xx_HAL_Driver/Inc/stm32g4xx_ll_exti.h ****   *         @arg @ref LL_EXTI_LINE_20
1090:Drivers/STM32G4xx_HAL_Driver/Inc/stm32g4xx_ll_exti.h ****   *         @arg @ref LL_EXTI_LINE_21
1091:Drivers/STM32G4xx_HAL_Driver/Inc/stm32g4xx_ll_exti.h ****   *         @arg @ref LL_EXTI_LINE_22
1092:Drivers/STM32G4xx_HAL_Driver/Inc/stm32g4xx_ll_exti.h ****   *         @arg @ref LL_EXTI_LINE_29
1093:Drivers/STM32G4xx_HAL_Driver/Inc/stm32g4xx_ll_exti.h ****   *         @arg @ref LL_EXTI_LINE_30
1094:Drivers/STM32G4xx_HAL_Driver/Inc/stm32g4xx_ll_exti.h ****   *         @arg @ref LL_EXTI_LINE_31 (*)
1095:Drivers/STM32G4xx_HAL_Driver/Inc/stm32g4xx_ll_exti.h ****   * @note   (*): Available in some devices
1096:Drivers/STM32G4xx_HAL_Driver/Inc/stm32g4xx_ll_exti.h ****   * @note   Please check each device line mapping for EXTI Line availability
1097:Drivers/STM32G4xx_HAL_Driver/Inc/stm32g4xx_ll_exti.h ****   * @retval State of bit (1 or 0).
ARM GAS  C:\Users\T1\AppData\Local\Temp\cciVZ2by.s 			page 39


1098:Drivers/STM32G4xx_HAL_Driver/Inc/stm32g4xx_ll_exti.h ****   */
1099:Drivers/STM32G4xx_HAL_Driver/Inc/stm32g4xx_ll_exti.h **** __STATIC_INLINE uint32_t LL_EXTI_IsEnabledFallingTrig_0_31(uint32_t ExtiLine)
1100:Drivers/STM32G4xx_HAL_Driver/Inc/stm32g4xx_ll_exti.h **** {
1101:Drivers/STM32G4xx_HAL_Driver/Inc/stm32g4xx_ll_exti.h ****   return ((READ_BIT(EXTI->FTSR1, ExtiLine) == (ExtiLine)) ? 1UL : 0UL);
1102:Drivers/STM32G4xx_HAL_Driver/Inc/stm32g4xx_ll_exti.h **** }
1103:Drivers/STM32G4xx_HAL_Driver/Inc/stm32g4xx_ll_exti.h **** 
1104:Drivers/STM32G4xx_HAL_Driver/Inc/stm32g4xx_ll_exti.h **** /**
1105:Drivers/STM32G4xx_HAL_Driver/Inc/stm32g4xx_ll_exti.h ****   * @brief  Check if falling edge trigger is enabled for Lines in range 32 to 63
1106:Drivers/STM32G4xx_HAL_Driver/Inc/stm32g4xx_ll_exti.h ****   * @rmtoll FTSR2        FTx           LL_EXTI_IsEnabledFallingTrig_32_63
1107:Drivers/STM32G4xx_HAL_Driver/Inc/stm32g4xx_ll_exti.h ****   * @param  ExtiLine This parameter can be a combination of the following values:
1108:Drivers/STM32G4xx_HAL_Driver/Inc/stm32g4xx_ll_exti.h ****   *         @arg @ref LL_EXTI_LINE_32 (*)
1109:Drivers/STM32G4xx_HAL_Driver/Inc/stm32g4xx_ll_exti.h ****   *         @arg @ref LL_EXTI_LINE_33 (*)
1110:Drivers/STM32G4xx_HAL_Driver/Inc/stm32g4xx_ll_exti.h ****   *         @arg @ref LL_EXTI_LINE_38
1111:Drivers/STM32G4xx_HAL_Driver/Inc/stm32g4xx_ll_exti.h ****   *         @arg @ref LL_EXTI_LINE_39
1112:Drivers/STM32G4xx_HAL_Driver/Inc/stm32g4xx_ll_exti.h ****   *         @arg @ref LL_EXTI_LINE_40
1113:Drivers/STM32G4xx_HAL_Driver/Inc/stm32g4xx_ll_exti.h ****   *         @arg @ref LL_EXTI_LINE_41
1114:Drivers/STM32G4xx_HAL_Driver/Inc/stm32g4xx_ll_exti.h ****   * @note   (*): Available in some devices
1115:Drivers/STM32G4xx_HAL_Driver/Inc/stm32g4xx_ll_exti.h ****   * @retval State of bit (1 or 0).
1116:Drivers/STM32G4xx_HAL_Driver/Inc/stm32g4xx_ll_exti.h ****   */
1117:Drivers/STM32G4xx_HAL_Driver/Inc/stm32g4xx_ll_exti.h **** __STATIC_INLINE uint32_t LL_EXTI_IsEnabledFallingTrig_32_63(uint32_t ExtiLine)
1118:Drivers/STM32G4xx_HAL_Driver/Inc/stm32g4xx_ll_exti.h **** {
1119:Drivers/STM32G4xx_HAL_Driver/Inc/stm32g4xx_ll_exti.h ****   return ((READ_BIT(EXTI->FTSR2, ExtiLine) == (ExtiLine)) ? 1UL : 0UL);
1120:Drivers/STM32G4xx_HAL_Driver/Inc/stm32g4xx_ll_exti.h **** }
1121:Drivers/STM32G4xx_HAL_Driver/Inc/stm32g4xx_ll_exti.h **** 
1122:Drivers/STM32G4xx_HAL_Driver/Inc/stm32g4xx_ll_exti.h **** /**
1123:Drivers/STM32G4xx_HAL_Driver/Inc/stm32g4xx_ll_exti.h ****   * @}
1124:Drivers/STM32G4xx_HAL_Driver/Inc/stm32g4xx_ll_exti.h ****   */
1125:Drivers/STM32G4xx_HAL_Driver/Inc/stm32g4xx_ll_exti.h **** 
1126:Drivers/STM32G4xx_HAL_Driver/Inc/stm32g4xx_ll_exti.h **** /** @defgroup EXTI_LL_EF_Software_Interrupt_Management Software_Interrupt_Management
1127:Drivers/STM32G4xx_HAL_Driver/Inc/stm32g4xx_ll_exti.h ****   * @{
1128:Drivers/STM32G4xx_HAL_Driver/Inc/stm32g4xx_ll_exti.h ****   */
1129:Drivers/STM32G4xx_HAL_Driver/Inc/stm32g4xx_ll_exti.h **** 
1130:Drivers/STM32G4xx_HAL_Driver/Inc/stm32g4xx_ll_exti.h **** /**
1131:Drivers/STM32G4xx_HAL_Driver/Inc/stm32g4xx_ll_exti.h ****   * @brief  Generate a software Interrupt Event for Lines in range 0 to 31
1132:Drivers/STM32G4xx_HAL_Driver/Inc/stm32g4xx_ll_exti.h ****   * @note If the interrupt is enabled on this line in the EXTI_IMR1, writing a 1 to
1133:Drivers/STM32G4xx_HAL_Driver/Inc/stm32g4xx_ll_exti.h ****   *       this bit when it is at '0' sets the corresponding pending bit in EXTI_PR1
1134:Drivers/STM32G4xx_HAL_Driver/Inc/stm32g4xx_ll_exti.h ****   *       resulting in an interrupt request generation.
1135:Drivers/STM32G4xx_HAL_Driver/Inc/stm32g4xx_ll_exti.h ****   *       This bit is cleared by clearing the corresponding bit in the EXTI_PR1
1136:Drivers/STM32G4xx_HAL_Driver/Inc/stm32g4xx_ll_exti.h ****   *       register (by writing a 1 into the bit)
1137:Drivers/STM32G4xx_HAL_Driver/Inc/stm32g4xx_ll_exti.h ****   * @rmtoll SWIER1       SWIx          LL_EXTI_GenerateSWI_0_31
1138:Drivers/STM32G4xx_HAL_Driver/Inc/stm32g4xx_ll_exti.h ****   * @param  ExtiLine This parameter can be a combination of the following values:
1139:Drivers/STM32G4xx_HAL_Driver/Inc/stm32g4xx_ll_exti.h ****   *         @arg @ref LL_EXTI_LINE_0
1140:Drivers/STM32G4xx_HAL_Driver/Inc/stm32g4xx_ll_exti.h ****   *         @arg @ref LL_EXTI_LINE_1
1141:Drivers/STM32G4xx_HAL_Driver/Inc/stm32g4xx_ll_exti.h ****   *         @arg @ref LL_EXTI_LINE_2
1142:Drivers/STM32G4xx_HAL_Driver/Inc/stm32g4xx_ll_exti.h ****   *         @arg @ref LL_EXTI_LINE_3
1143:Drivers/STM32G4xx_HAL_Driver/Inc/stm32g4xx_ll_exti.h ****   *         @arg @ref LL_EXTI_LINE_4
1144:Drivers/STM32G4xx_HAL_Driver/Inc/stm32g4xx_ll_exti.h ****   *         @arg @ref LL_EXTI_LINE_5
1145:Drivers/STM32G4xx_HAL_Driver/Inc/stm32g4xx_ll_exti.h ****   *         @arg @ref LL_EXTI_LINE_6
1146:Drivers/STM32G4xx_HAL_Driver/Inc/stm32g4xx_ll_exti.h ****   *         @arg @ref LL_EXTI_LINE_7
1147:Drivers/STM32G4xx_HAL_Driver/Inc/stm32g4xx_ll_exti.h ****   *         @arg @ref LL_EXTI_LINE_8
1148:Drivers/STM32G4xx_HAL_Driver/Inc/stm32g4xx_ll_exti.h ****   *         @arg @ref LL_EXTI_LINE_9
1149:Drivers/STM32G4xx_HAL_Driver/Inc/stm32g4xx_ll_exti.h ****   *         @arg @ref LL_EXTI_LINE_10
1150:Drivers/STM32G4xx_HAL_Driver/Inc/stm32g4xx_ll_exti.h ****   *         @arg @ref LL_EXTI_LINE_11
1151:Drivers/STM32G4xx_HAL_Driver/Inc/stm32g4xx_ll_exti.h ****   *         @arg @ref LL_EXTI_LINE_12
1152:Drivers/STM32G4xx_HAL_Driver/Inc/stm32g4xx_ll_exti.h ****   *         @arg @ref LL_EXTI_LINE_13
1153:Drivers/STM32G4xx_HAL_Driver/Inc/stm32g4xx_ll_exti.h ****   *         @arg @ref LL_EXTI_LINE_14
1154:Drivers/STM32G4xx_HAL_Driver/Inc/stm32g4xx_ll_exti.h ****   *         @arg @ref LL_EXTI_LINE_15
ARM GAS  C:\Users\T1\AppData\Local\Temp\cciVZ2by.s 			page 40


1155:Drivers/STM32G4xx_HAL_Driver/Inc/stm32g4xx_ll_exti.h ****   *         @arg @ref LL_EXTI_LINE_16
1156:Drivers/STM32G4xx_HAL_Driver/Inc/stm32g4xx_ll_exti.h ****   *         @arg @ref LL_EXTI_LINE_18
1157:Drivers/STM32G4xx_HAL_Driver/Inc/stm32g4xx_ll_exti.h ****   *         @arg @ref LL_EXTI_LINE_19
1158:Drivers/STM32G4xx_HAL_Driver/Inc/stm32g4xx_ll_exti.h ****   *         @arg @ref LL_EXTI_LINE_20
1159:Drivers/STM32G4xx_HAL_Driver/Inc/stm32g4xx_ll_exti.h ****   *         @arg @ref LL_EXTI_LINE_21
1160:Drivers/STM32G4xx_HAL_Driver/Inc/stm32g4xx_ll_exti.h ****   *         @arg @ref LL_EXTI_LINE_22
1161:Drivers/STM32G4xx_HAL_Driver/Inc/stm32g4xx_ll_exti.h ****   *         @arg @ref LL_EXTI_LINE_29
1162:Drivers/STM32G4xx_HAL_Driver/Inc/stm32g4xx_ll_exti.h ****   *         @arg @ref LL_EXTI_LINE_30
1163:Drivers/STM32G4xx_HAL_Driver/Inc/stm32g4xx_ll_exti.h ****   *         @arg @ref LL_EXTI_LINE_31 (*)
1164:Drivers/STM32G4xx_HAL_Driver/Inc/stm32g4xx_ll_exti.h ****   * @note   (*): Available in some devices
1165:Drivers/STM32G4xx_HAL_Driver/Inc/stm32g4xx_ll_exti.h ****   * @note   Please check each device line mapping for EXTI Line availability
1166:Drivers/STM32G4xx_HAL_Driver/Inc/stm32g4xx_ll_exti.h ****   * @retval None
1167:Drivers/STM32G4xx_HAL_Driver/Inc/stm32g4xx_ll_exti.h ****   */
1168:Drivers/STM32G4xx_HAL_Driver/Inc/stm32g4xx_ll_exti.h **** __STATIC_INLINE void LL_EXTI_GenerateSWI_0_31(uint32_t ExtiLine)
1169:Drivers/STM32G4xx_HAL_Driver/Inc/stm32g4xx_ll_exti.h **** {
1170:Drivers/STM32G4xx_HAL_Driver/Inc/stm32g4xx_ll_exti.h ****   SET_BIT(EXTI->SWIER1, ExtiLine);
1171:Drivers/STM32G4xx_HAL_Driver/Inc/stm32g4xx_ll_exti.h **** }
1172:Drivers/STM32G4xx_HAL_Driver/Inc/stm32g4xx_ll_exti.h **** 
1173:Drivers/STM32G4xx_HAL_Driver/Inc/stm32g4xx_ll_exti.h **** /**
1174:Drivers/STM32G4xx_HAL_Driver/Inc/stm32g4xx_ll_exti.h ****   * @brief  Generate a software Interrupt Event for Lines in range 32 to 63
1175:Drivers/STM32G4xx_HAL_Driver/Inc/stm32g4xx_ll_exti.h ****   * @note If the interrupt is enabled on this line in the EXTI_IMR2, writing a 1 to
1176:Drivers/STM32G4xx_HAL_Driver/Inc/stm32g4xx_ll_exti.h ****   *       this bit when it is at '0' sets the corresponding pending bit in EXTI_PR2
1177:Drivers/STM32G4xx_HAL_Driver/Inc/stm32g4xx_ll_exti.h ****   *       resulting in an interrupt request generation.
1178:Drivers/STM32G4xx_HAL_Driver/Inc/stm32g4xx_ll_exti.h ****   *       This bit is cleared by clearing the corresponding bit in the EXTI_PR2
1179:Drivers/STM32G4xx_HAL_Driver/Inc/stm32g4xx_ll_exti.h ****   *       register (by writing a 1 into the bit)
1180:Drivers/STM32G4xx_HAL_Driver/Inc/stm32g4xx_ll_exti.h ****   * @rmtoll SWIER2       SWIx          LL_EXTI_GenerateSWI_32_63
1181:Drivers/STM32G4xx_HAL_Driver/Inc/stm32g4xx_ll_exti.h ****   * @param  ExtiLine This parameter can be a combination of the following values:
1182:Drivers/STM32G4xx_HAL_Driver/Inc/stm32g4xx_ll_exti.h ****   *         @arg @ref LL_EXTI_LINE_32 (*)
1183:Drivers/STM32G4xx_HAL_Driver/Inc/stm32g4xx_ll_exti.h ****   *         @arg @ref LL_EXTI_LINE_33 (*)
1184:Drivers/STM32G4xx_HAL_Driver/Inc/stm32g4xx_ll_exti.h ****   *         @arg @ref LL_EXTI_LINE_38
1185:Drivers/STM32G4xx_HAL_Driver/Inc/stm32g4xx_ll_exti.h ****   *         @arg @ref LL_EXTI_LINE_39
1186:Drivers/STM32G4xx_HAL_Driver/Inc/stm32g4xx_ll_exti.h ****   *         @arg @ref LL_EXTI_LINE_40
1187:Drivers/STM32G4xx_HAL_Driver/Inc/stm32g4xx_ll_exti.h ****   *         @arg @ref LL_EXTI_LINE_41
1188:Drivers/STM32G4xx_HAL_Driver/Inc/stm32g4xx_ll_exti.h ****   * @note   (*): Available in some devices
1189:Drivers/STM32G4xx_HAL_Driver/Inc/stm32g4xx_ll_exti.h ****   * @retval None
1190:Drivers/STM32G4xx_HAL_Driver/Inc/stm32g4xx_ll_exti.h ****   */
1191:Drivers/STM32G4xx_HAL_Driver/Inc/stm32g4xx_ll_exti.h **** __STATIC_INLINE void LL_EXTI_GenerateSWI_32_63(uint32_t ExtiLine)
1192:Drivers/STM32G4xx_HAL_Driver/Inc/stm32g4xx_ll_exti.h **** {
1193:Drivers/STM32G4xx_HAL_Driver/Inc/stm32g4xx_ll_exti.h ****   SET_BIT(EXTI->SWIER2, ExtiLine);
1194:Drivers/STM32G4xx_HAL_Driver/Inc/stm32g4xx_ll_exti.h **** }
1195:Drivers/STM32G4xx_HAL_Driver/Inc/stm32g4xx_ll_exti.h **** 
1196:Drivers/STM32G4xx_HAL_Driver/Inc/stm32g4xx_ll_exti.h **** /**
1197:Drivers/STM32G4xx_HAL_Driver/Inc/stm32g4xx_ll_exti.h ****   * @}
1198:Drivers/STM32G4xx_HAL_Driver/Inc/stm32g4xx_ll_exti.h ****   */
1199:Drivers/STM32G4xx_HAL_Driver/Inc/stm32g4xx_ll_exti.h **** 
1200:Drivers/STM32G4xx_HAL_Driver/Inc/stm32g4xx_ll_exti.h **** /** @defgroup EXTI_LL_EF_Flag_Management Flag_Management
1201:Drivers/STM32G4xx_HAL_Driver/Inc/stm32g4xx_ll_exti.h ****   * @{
1202:Drivers/STM32G4xx_HAL_Driver/Inc/stm32g4xx_ll_exti.h ****   */
1203:Drivers/STM32G4xx_HAL_Driver/Inc/stm32g4xx_ll_exti.h **** 
1204:Drivers/STM32G4xx_HAL_Driver/Inc/stm32g4xx_ll_exti.h **** /**
1205:Drivers/STM32G4xx_HAL_Driver/Inc/stm32g4xx_ll_exti.h ****   * @brief  Check if the ExtLine Flag is set or not for Lines in range 0 to 31
1206:Drivers/STM32G4xx_HAL_Driver/Inc/stm32g4xx_ll_exti.h ****   * @note This bit is set when the selected edge event arrives on the interrupt
1207:Drivers/STM32G4xx_HAL_Driver/Inc/stm32g4xx_ll_exti.h ****   *       line. This bit is cleared by writing a 1 to the bit.
1208:Drivers/STM32G4xx_HAL_Driver/Inc/stm32g4xx_ll_exti.h ****   * @rmtoll PR1          PIFx           LL_EXTI_IsActiveFlag_0_31
1209:Drivers/STM32G4xx_HAL_Driver/Inc/stm32g4xx_ll_exti.h ****   * @param  ExtiLine This parameter can be a combination of the following values:
1210:Drivers/STM32G4xx_HAL_Driver/Inc/stm32g4xx_ll_exti.h ****   *         @arg @ref LL_EXTI_LINE_0
1211:Drivers/STM32G4xx_HAL_Driver/Inc/stm32g4xx_ll_exti.h ****   *         @arg @ref LL_EXTI_LINE_1
ARM GAS  C:\Users\T1\AppData\Local\Temp\cciVZ2by.s 			page 41


1212:Drivers/STM32G4xx_HAL_Driver/Inc/stm32g4xx_ll_exti.h ****   *         @arg @ref LL_EXTI_LINE_2
1213:Drivers/STM32G4xx_HAL_Driver/Inc/stm32g4xx_ll_exti.h ****   *         @arg @ref LL_EXTI_LINE_3
1214:Drivers/STM32G4xx_HAL_Driver/Inc/stm32g4xx_ll_exti.h ****   *         @arg @ref LL_EXTI_LINE_4
1215:Drivers/STM32G4xx_HAL_Driver/Inc/stm32g4xx_ll_exti.h ****   *         @arg @ref LL_EXTI_LINE_5
1216:Drivers/STM32G4xx_HAL_Driver/Inc/stm32g4xx_ll_exti.h ****   *         @arg @ref LL_EXTI_LINE_6
1217:Drivers/STM32G4xx_HAL_Driver/Inc/stm32g4xx_ll_exti.h ****   *         @arg @ref LL_EXTI_LINE_7
1218:Drivers/STM32G4xx_HAL_Driver/Inc/stm32g4xx_ll_exti.h ****   *         @arg @ref LL_EXTI_LINE_8
1219:Drivers/STM32G4xx_HAL_Driver/Inc/stm32g4xx_ll_exti.h ****   *         @arg @ref LL_EXTI_LINE_9
1220:Drivers/STM32G4xx_HAL_Driver/Inc/stm32g4xx_ll_exti.h ****   *         @arg @ref LL_EXTI_LINE_10
1221:Drivers/STM32G4xx_HAL_Driver/Inc/stm32g4xx_ll_exti.h ****   *         @arg @ref LL_EXTI_LINE_11
1222:Drivers/STM32G4xx_HAL_Driver/Inc/stm32g4xx_ll_exti.h ****   *         @arg @ref LL_EXTI_LINE_12
1223:Drivers/STM32G4xx_HAL_Driver/Inc/stm32g4xx_ll_exti.h ****   *         @arg @ref LL_EXTI_LINE_13
1224:Drivers/STM32G4xx_HAL_Driver/Inc/stm32g4xx_ll_exti.h ****   *         @arg @ref LL_EXTI_LINE_14
1225:Drivers/STM32G4xx_HAL_Driver/Inc/stm32g4xx_ll_exti.h ****   *         @arg @ref LL_EXTI_LINE_15
1226:Drivers/STM32G4xx_HAL_Driver/Inc/stm32g4xx_ll_exti.h ****   *         @arg @ref LL_EXTI_LINE_16
1227:Drivers/STM32G4xx_HAL_Driver/Inc/stm32g4xx_ll_exti.h ****   *         @arg @ref LL_EXTI_LINE_18
1228:Drivers/STM32G4xx_HAL_Driver/Inc/stm32g4xx_ll_exti.h ****   *         @arg @ref LL_EXTI_LINE_19
1229:Drivers/STM32G4xx_HAL_Driver/Inc/stm32g4xx_ll_exti.h ****   *         @arg @ref LL_EXTI_LINE_20
1230:Drivers/STM32G4xx_HAL_Driver/Inc/stm32g4xx_ll_exti.h ****   *         @arg @ref LL_EXTI_LINE_21
1231:Drivers/STM32G4xx_HAL_Driver/Inc/stm32g4xx_ll_exti.h ****   *         @arg @ref LL_EXTI_LINE_22
1232:Drivers/STM32G4xx_HAL_Driver/Inc/stm32g4xx_ll_exti.h ****   *         @arg @ref LL_EXTI_LINE_29
1233:Drivers/STM32G4xx_HAL_Driver/Inc/stm32g4xx_ll_exti.h ****   *         @arg @ref LL_EXTI_LINE_30
1234:Drivers/STM32G4xx_HAL_Driver/Inc/stm32g4xx_ll_exti.h ****   *         @arg @ref LL_EXTI_LINE_31 (*)
1235:Drivers/STM32G4xx_HAL_Driver/Inc/stm32g4xx_ll_exti.h ****   * @note   (*): Available in some devices
1236:Drivers/STM32G4xx_HAL_Driver/Inc/stm32g4xx_ll_exti.h ****   * @note   Please check each device line mapping for EXTI Line availability
1237:Drivers/STM32G4xx_HAL_Driver/Inc/stm32g4xx_ll_exti.h ****   * @retval State of bit (1 or 0).
1238:Drivers/STM32G4xx_HAL_Driver/Inc/stm32g4xx_ll_exti.h ****   */
1239:Drivers/STM32G4xx_HAL_Driver/Inc/stm32g4xx_ll_exti.h **** __STATIC_INLINE uint32_t LL_EXTI_IsActiveFlag_0_31(uint32_t ExtiLine)
1240:Drivers/STM32G4xx_HAL_Driver/Inc/stm32g4xx_ll_exti.h **** {
1241:Drivers/STM32G4xx_HAL_Driver/Inc/stm32g4xx_ll_exti.h ****   return ((READ_BIT(EXTI->PR1, ExtiLine) == (ExtiLine)) ? 1UL : 0UL);
1242:Drivers/STM32G4xx_HAL_Driver/Inc/stm32g4xx_ll_exti.h **** }
1243:Drivers/STM32G4xx_HAL_Driver/Inc/stm32g4xx_ll_exti.h **** 
1244:Drivers/STM32G4xx_HAL_Driver/Inc/stm32g4xx_ll_exti.h **** /**
1245:Drivers/STM32G4xx_HAL_Driver/Inc/stm32g4xx_ll_exti.h ****   * @brief  Check if the ExtLine Flag is set or not for  Lines in range 32 to 63
1246:Drivers/STM32G4xx_HAL_Driver/Inc/stm32g4xx_ll_exti.h ****   * @note This bit is set when the selected edge event arrives on the interrupt
1247:Drivers/STM32G4xx_HAL_Driver/Inc/stm32g4xx_ll_exti.h ****   *       line. This bit is cleared by writing a 1 to the bit.
1248:Drivers/STM32G4xx_HAL_Driver/Inc/stm32g4xx_ll_exti.h ****   * @rmtoll PR2          PIFx           LL_EXTI_IsActiveFlag_32_63
1249:Drivers/STM32G4xx_HAL_Driver/Inc/stm32g4xx_ll_exti.h ****   * @param  ExtiLine This parameter can be a combination of the following values:
1250:Drivers/STM32G4xx_HAL_Driver/Inc/stm32g4xx_ll_exti.h ****   *         @arg @ref LL_EXTI_LINE_32 (*)
1251:Drivers/STM32G4xx_HAL_Driver/Inc/stm32g4xx_ll_exti.h ****   *         @arg @ref LL_EXTI_LINE_33 (*)
1252:Drivers/STM32G4xx_HAL_Driver/Inc/stm32g4xx_ll_exti.h ****   *         @arg @ref LL_EXTI_LINE_38
1253:Drivers/STM32G4xx_HAL_Driver/Inc/stm32g4xx_ll_exti.h ****   *         @arg @ref LL_EXTI_LINE_39
1254:Drivers/STM32G4xx_HAL_Driver/Inc/stm32g4xx_ll_exti.h ****   *         @arg @ref LL_EXTI_LINE_40
1255:Drivers/STM32G4xx_HAL_Driver/Inc/stm32g4xx_ll_exti.h ****   *         @arg @ref LL_EXTI_LINE_41
1256:Drivers/STM32G4xx_HAL_Driver/Inc/stm32g4xx_ll_exti.h ****   * @note   (*): Available in some devices
1257:Drivers/STM32G4xx_HAL_Driver/Inc/stm32g4xx_ll_exti.h ****   * @retval State of bit (1 or 0).
1258:Drivers/STM32G4xx_HAL_Driver/Inc/stm32g4xx_ll_exti.h ****   */
1259:Drivers/STM32G4xx_HAL_Driver/Inc/stm32g4xx_ll_exti.h **** __STATIC_INLINE uint32_t LL_EXTI_IsActiveFlag_32_63(uint32_t ExtiLine)
1260:Drivers/STM32G4xx_HAL_Driver/Inc/stm32g4xx_ll_exti.h **** {
1261:Drivers/STM32G4xx_HAL_Driver/Inc/stm32g4xx_ll_exti.h ****   return ((READ_BIT(EXTI->PR2, ExtiLine) == (ExtiLine)) ? 1UL : 0UL);
1262:Drivers/STM32G4xx_HAL_Driver/Inc/stm32g4xx_ll_exti.h **** }
1263:Drivers/STM32G4xx_HAL_Driver/Inc/stm32g4xx_ll_exti.h **** 
1264:Drivers/STM32G4xx_HAL_Driver/Inc/stm32g4xx_ll_exti.h **** /**
1265:Drivers/STM32G4xx_HAL_Driver/Inc/stm32g4xx_ll_exti.h ****   * @brief  Read ExtLine Combination Flag for Lines in range 0 to 31
1266:Drivers/STM32G4xx_HAL_Driver/Inc/stm32g4xx_ll_exti.h ****   * @note This bit is set when the selected edge event arrives on the interrupt
1267:Drivers/STM32G4xx_HAL_Driver/Inc/stm32g4xx_ll_exti.h ****   *       line. This bit is cleared by writing a 1 to the bit.
1268:Drivers/STM32G4xx_HAL_Driver/Inc/stm32g4xx_ll_exti.h ****   * @rmtoll PR1          PIFx           LL_EXTI_ReadFlag_0_31
ARM GAS  C:\Users\T1\AppData\Local\Temp\cciVZ2by.s 			page 42


1269:Drivers/STM32G4xx_HAL_Driver/Inc/stm32g4xx_ll_exti.h ****   * @param  ExtiLine This parameter can be a combination of the following values:
1270:Drivers/STM32G4xx_HAL_Driver/Inc/stm32g4xx_ll_exti.h ****   *         @arg @ref LL_EXTI_LINE_0
1271:Drivers/STM32G4xx_HAL_Driver/Inc/stm32g4xx_ll_exti.h ****   *         @arg @ref LL_EXTI_LINE_1
1272:Drivers/STM32G4xx_HAL_Driver/Inc/stm32g4xx_ll_exti.h ****   *         @arg @ref LL_EXTI_LINE_2
1273:Drivers/STM32G4xx_HAL_Driver/Inc/stm32g4xx_ll_exti.h ****   *         @arg @ref LL_EXTI_LINE_3
1274:Drivers/STM32G4xx_HAL_Driver/Inc/stm32g4xx_ll_exti.h ****   *         @arg @ref LL_EXTI_LINE_4
1275:Drivers/STM32G4xx_HAL_Driver/Inc/stm32g4xx_ll_exti.h ****   *         @arg @ref LL_EXTI_LINE_5
1276:Drivers/STM32G4xx_HAL_Driver/Inc/stm32g4xx_ll_exti.h ****   *         @arg @ref LL_EXTI_LINE_6
1277:Drivers/STM32G4xx_HAL_Driver/Inc/stm32g4xx_ll_exti.h ****   *         @arg @ref LL_EXTI_LINE_7
1278:Drivers/STM32G4xx_HAL_Driver/Inc/stm32g4xx_ll_exti.h ****   *         @arg @ref LL_EXTI_LINE_8
1279:Drivers/STM32G4xx_HAL_Driver/Inc/stm32g4xx_ll_exti.h ****   *         @arg @ref LL_EXTI_LINE_9
1280:Drivers/STM32G4xx_HAL_Driver/Inc/stm32g4xx_ll_exti.h ****   *         @arg @ref LL_EXTI_LINE_10
1281:Drivers/STM32G4xx_HAL_Driver/Inc/stm32g4xx_ll_exti.h ****   *         @arg @ref LL_EXTI_LINE_11
1282:Drivers/STM32G4xx_HAL_Driver/Inc/stm32g4xx_ll_exti.h ****   *         @arg @ref LL_EXTI_LINE_12
1283:Drivers/STM32G4xx_HAL_Driver/Inc/stm32g4xx_ll_exti.h ****   *         @arg @ref LL_EXTI_LINE_13
1284:Drivers/STM32G4xx_HAL_Driver/Inc/stm32g4xx_ll_exti.h ****   *         @arg @ref LL_EXTI_LINE_14
1285:Drivers/STM32G4xx_HAL_Driver/Inc/stm32g4xx_ll_exti.h ****   *         @arg @ref LL_EXTI_LINE_15
1286:Drivers/STM32G4xx_HAL_Driver/Inc/stm32g4xx_ll_exti.h ****   *         @arg @ref LL_EXTI_LINE_16
1287:Drivers/STM32G4xx_HAL_Driver/Inc/stm32g4xx_ll_exti.h ****   *         @arg @ref LL_EXTI_LINE_18
1288:Drivers/STM32G4xx_HAL_Driver/Inc/stm32g4xx_ll_exti.h ****   *         @arg @ref LL_EXTI_LINE_19
1289:Drivers/STM32G4xx_HAL_Driver/Inc/stm32g4xx_ll_exti.h ****   *         @arg @ref LL_EXTI_LINE_20
1290:Drivers/STM32G4xx_HAL_Driver/Inc/stm32g4xx_ll_exti.h ****   *         @arg @ref LL_EXTI_LINE_21
1291:Drivers/STM32G4xx_HAL_Driver/Inc/stm32g4xx_ll_exti.h ****   *         @arg @ref LL_EXTI_LINE_22
1292:Drivers/STM32G4xx_HAL_Driver/Inc/stm32g4xx_ll_exti.h ****   *         @arg @ref LL_EXTI_LINE_29
1293:Drivers/STM32G4xx_HAL_Driver/Inc/stm32g4xx_ll_exti.h ****   *         @arg @ref LL_EXTI_LINE_30
1294:Drivers/STM32G4xx_HAL_Driver/Inc/stm32g4xx_ll_exti.h ****   *         @arg @ref LL_EXTI_LINE_31 (*)
1295:Drivers/STM32G4xx_HAL_Driver/Inc/stm32g4xx_ll_exti.h ****   * @note   (*): Available in some devices
1296:Drivers/STM32G4xx_HAL_Driver/Inc/stm32g4xx_ll_exti.h ****   * @note   Please check each device line mapping for EXTI Line availability
1297:Drivers/STM32G4xx_HAL_Driver/Inc/stm32g4xx_ll_exti.h ****   * @retval @note This bit is set when the selected edge event arrives on the interrupt
1298:Drivers/STM32G4xx_HAL_Driver/Inc/stm32g4xx_ll_exti.h ****   */
1299:Drivers/STM32G4xx_HAL_Driver/Inc/stm32g4xx_ll_exti.h **** __STATIC_INLINE uint32_t LL_EXTI_ReadFlag_0_31(uint32_t ExtiLine)
1300:Drivers/STM32G4xx_HAL_Driver/Inc/stm32g4xx_ll_exti.h **** {
1301:Drivers/STM32G4xx_HAL_Driver/Inc/stm32g4xx_ll_exti.h ****   return (uint32_t)(READ_BIT(EXTI->PR1, ExtiLine));
1302:Drivers/STM32G4xx_HAL_Driver/Inc/stm32g4xx_ll_exti.h **** }
1303:Drivers/STM32G4xx_HAL_Driver/Inc/stm32g4xx_ll_exti.h **** 
1304:Drivers/STM32G4xx_HAL_Driver/Inc/stm32g4xx_ll_exti.h **** /**
1305:Drivers/STM32G4xx_HAL_Driver/Inc/stm32g4xx_ll_exti.h ****   * @brief  Read ExtLine Combination Flag for  Lines in range 32 to 63
1306:Drivers/STM32G4xx_HAL_Driver/Inc/stm32g4xx_ll_exti.h ****   * @note This bit is set when the selected edge event arrives on the interrupt
1307:Drivers/STM32G4xx_HAL_Driver/Inc/stm32g4xx_ll_exti.h ****   *       line. This bit is cleared by writing a 1 to the bit.
1308:Drivers/STM32G4xx_HAL_Driver/Inc/stm32g4xx_ll_exti.h ****   * @rmtoll PR2          PIFx           LL_EXTI_ReadFlag_32_63
1309:Drivers/STM32G4xx_HAL_Driver/Inc/stm32g4xx_ll_exti.h ****   * @param  ExtiLine This parameter can be a combination of the following values:
1310:Drivers/STM32G4xx_HAL_Driver/Inc/stm32g4xx_ll_exti.h ****   *         @arg @ref LL_EXTI_LINE_32 (*)
1311:Drivers/STM32G4xx_HAL_Driver/Inc/stm32g4xx_ll_exti.h ****   *         @arg @ref LL_EXTI_LINE_33 (*)
1312:Drivers/STM32G4xx_HAL_Driver/Inc/stm32g4xx_ll_exti.h ****   *         @arg @ref LL_EXTI_LINE_38
1313:Drivers/STM32G4xx_HAL_Driver/Inc/stm32g4xx_ll_exti.h ****   *         @arg @ref LL_EXTI_LINE_39
1314:Drivers/STM32G4xx_HAL_Driver/Inc/stm32g4xx_ll_exti.h ****   *         @arg @ref LL_EXTI_LINE_40
1315:Drivers/STM32G4xx_HAL_Driver/Inc/stm32g4xx_ll_exti.h ****   *         @arg @ref LL_EXTI_LINE_41
1316:Drivers/STM32G4xx_HAL_Driver/Inc/stm32g4xx_ll_exti.h ****   * @note   (*): Available in some devices
1317:Drivers/STM32G4xx_HAL_Driver/Inc/stm32g4xx_ll_exti.h ****   * @retval @note This bit is set when the selected edge event arrives on the interrupt
1318:Drivers/STM32G4xx_HAL_Driver/Inc/stm32g4xx_ll_exti.h ****   */
1319:Drivers/STM32G4xx_HAL_Driver/Inc/stm32g4xx_ll_exti.h **** __STATIC_INLINE uint32_t LL_EXTI_ReadFlag_32_63(uint32_t ExtiLine)
1320:Drivers/STM32G4xx_HAL_Driver/Inc/stm32g4xx_ll_exti.h **** {
1321:Drivers/STM32G4xx_HAL_Driver/Inc/stm32g4xx_ll_exti.h ****   return (uint32_t)(READ_BIT(EXTI->PR2, ExtiLine));
1322:Drivers/STM32G4xx_HAL_Driver/Inc/stm32g4xx_ll_exti.h **** }
1323:Drivers/STM32G4xx_HAL_Driver/Inc/stm32g4xx_ll_exti.h **** 
1324:Drivers/STM32G4xx_HAL_Driver/Inc/stm32g4xx_ll_exti.h **** /**
1325:Drivers/STM32G4xx_HAL_Driver/Inc/stm32g4xx_ll_exti.h ****   * @brief  Clear ExtLine Flags  for Lines in range 0 to 31
ARM GAS  C:\Users\T1\AppData\Local\Temp\cciVZ2by.s 			page 43


1326:Drivers/STM32G4xx_HAL_Driver/Inc/stm32g4xx_ll_exti.h ****   * @note This bit is set when the selected edge event arrives on the interrupt
1327:Drivers/STM32G4xx_HAL_Driver/Inc/stm32g4xx_ll_exti.h ****   *       line. This bit is cleared by writing a 1 to the bit.
1328:Drivers/STM32G4xx_HAL_Driver/Inc/stm32g4xx_ll_exti.h ****   * @rmtoll PR1          PIFx           LL_EXTI_ClearFlag_0_31
1329:Drivers/STM32G4xx_HAL_Driver/Inc/stm32g4xx_ll_exti.h ****   * @param  ExtiLine This parameter can be a combination of the following values:
1330:Drivers/STM32G4xx_HAL_Driver/Inc/stm32g4xx_ll_exti.h ****   *         @arg @ref LL_EXTI_LINE_0
1331:Drivers/STM32G4xx_HAL_Driver/Inc/stm32g4xx_ll_exti.h ****   *         @arg @ref LL_EXTI_LINE_1
1332:Drivers/STM32G4xx_HAL_Driver/Inc/stm32g4xx_ll_exti.h ****   *         @arg @ref LL_EXTI_LINE_2
1333:Drivers/STM32G4xx_HAL_Driver/Inc/stm32g4xx_ll_exti.h ****   *         @arg @ref LL_EXTI_LINE_3
1334:Drivers/STM32G4xx_HAL_Driver/Inc/stm32g4xx_ll_exti.h ****   *         @arg @ref LL_EXTI_LINE_4
1335:Drivers/STM32G4xx_HAL_Driver/Inc/stm32g4xx_ll_exti.h ****   *         @arg @ref LL_EXTI_LINE_5
1336:Drivers/STM32G4xx_HAL_Driver/Inc/stm32g4xx_ll_exti.h ****   *         @arg @ref LL_EXTI_LINE_6
1337:Drivers/STM32G4xx_HAL_Driver/Inc/stm32g4xx_ll_exti.h ****   *         @arg @ref LL_EXTI_LINE_7
1338:Drivers/STM32G4xx_HAL_Driver/Inc/stm32g4xx_ll_exti.h ****   *         @arg @ref LL_EXTI_LINE_8
1339:Drivers/STM32G4xx_HAL_Driver/Inc/stm32g4xx_ll_exti.h ****   *         @arg @ref LL_EXTI_LINE_9
1340:Drivers/STM32G4xx_HAL_Driver/Inc/stm32g4xx_ll_exti.h ****   *         @arg @ref LL_EXTI_LINE_10
1341:Drivers/STM32G4xx_HAL_Driver/Inc/stm32g4xx_ll_exti.h ****   *         @arg @ref LL_EXTI_LINE_11
1342:Drivers/STM32G4xx_HAL_Driver/Inc/stm32g4xx_ll_exti.h ****   *         @arg @ref LL_EXTI_LINE_12
1343:Drivers/STM32G4xx_HAL_Driver/Inc/stm32g4xx_ll_exti.h ****   *         @arg @ref LL_EXTI_LINE_13
1344:Drivers/STM32G4xx_HAL_Driver/Inc/stm32g4xx_ll_exti.h ****   *         @arg @ref LL_EXTI_LINE_14
1345:Drivers/STM32G4xx_HAL_Driver/Inc/stm32g4xx_ll_exti.h ****   *         @arg @ref LL_EXTI_LINE_15
1346:Drivers/STM32G4xx_HAL_Driver/Inc/stm32g4xx_ll_exti.h ****   *         @arg @ref LL_EXTI_LINE_16
1347:Drivers/STM32G4xx_HAL_Driver/Inc/stm32g4xx_ll_exti.h ****   *         @arg @ref LL_EXTI_LINE_18
1348:Drivers/STM32G4xx_HAL_Driver/Inc/stm32g4xx_ll_exti.h ****   *         @arg @ref LL_EXTI_LINE_19
1349:Drivers/STM32G4xx_HAL_Driver/Inc/stm32g4xx_ll_exti.h ****   *         @arg @ref LL_EXTI_LINE_20
1350:Drivers/STM32G4xx_HAL_Driver/Inc/stm32g4xx_ll_exti.h ****   *         @arg @ref LL_EXTI_LINE_21
1351:Drivers/STM32G4xx_HAL_Driver/Inc/stm32g4xx_ll_exti.h ****   *         @arg @ref LL_EXTI_LINE_22
1352:Drivers/STM32G4xx_HAL_Driver/Inc/stm32g4xx_ll_exti.h ****   *         @arg @ref LL_EXTI_LINE_29
1353:Drivers/STM32G4xx_HAL_Driver/Inc/stm32g4xx_ll_exti.h ****   *         @arg @ref LL_EXTI_LINE_30
1354:Drivers/STM32G4xx_HAL_Driver/Inc/stm32g4xx_ll_exti.h ****   *         @arg @ref LL_EXTI_LINE_31 (*)
1355:Drivers/STM32G4xx_HAL_Driver/Inc/stm32g4xx_ll_exti.h ****   * @note   (*): Available in some devices
1356:Drivers/STM32G4xx_HAL_Driver/Inc/stm32g4xx_ll_exti.h ****   * @note   Please check each device line mapping for EXTI Line availability
1357:Drivers/STM32G4xx_HAL_Driver/Inc/stm32g4xx_ll_exti.h ****   * @retval None
1358:Drivers/STM32G4xx_HAL_Driver/Inc/stm32g4xx_ll_exti.h ****   */
1359:Drivers/STM32G4xx_HAL_Driver/Inc/stm32g4xx_ll_exti.h **** __STATIC_INLINE void LL_EXTI_ClearFlag_0_31(uint32_t ExtiLine)
 396              		.loc 2 1359 22 view .LVU118
 397              	.LBB67:
1360:Drivers/STM32G4xx_HAL_Driver/Inc/stm32g4xx_ll_exti.h **** {
1361:Drivers/STM32G4xx_HAL_Driver/Inc/stm32g4xx_ll_exti.h ****   WRITE_REG(EXTI->PR1, ExtiLine);
 398              		.loc 2 1361 3 view .LVU119
 399 014e 514A     		ldr	r2, .L54+20
 400 0150 5361     		str	r3, [r2, #20]
1362:Drivers/STM32G4xx_HAL_Driver/Inc/stm32g4xx_ll_exti.h **** }
 401              		.loc 2 1362 1 is_stmt 0 view .LVU120
 402 0152 14E0     		b	.L24
 403              	.LVL22:
 404              	.L16:
 405              		.loc 2 1362 1 view .LVU121
 406              	.LBE67:
 407              	.LBE66:
 378:Drivers/STM32G4xx_HAL_Driver/Src/stm32g4xx_hal_comp.c ****         {
 408              		.loc 1 378 9 is_stmt 1 view .LVU122
 378:Drivers/STM32G4xx_HAL_Driver/Src/stm32g4xx_hal_comp.c ****         {
 409              		.loc 1 378 18 is_stmt 0 view .LVU123
 410 0154 2268     		ldr	r2, [r4]
 378:Drivers/STM32G4xx_HAL_Driver/Src/stm32g4xx_hal_comp.c ****         {
 411              		.loc 1 378 11 view .LVU124
 412 0156 4E49     		ldr	r1, .L54+16
ARM GAS  C:\Users\T1\AppData\Local\Temp\cciVZ2by.s 			page 44


 413 0158 8A42     		cmp	r2, r1
 414 015a 08D0     		beq	.L20
 378:Drivers/STM32G4xx_HAL_Driver/Src/stm32g4xx_hal_comp.c ****         {
 415              		.loc 1 378 39 discriminator 1 view .LVU125
 416 015c 0431     		adds	r1, r1, #4
 417 015e 8A42     		cmp	r2, r1
 418 0160 05D0     		beq	.L20
 384:Drivers/STM32G4xx_HAL_Driver/Src/stm32g4xx_hal_comp.c ****         }
 419              		.loc 1 384 11 is_stmt 1 view .LVU126
 420              	.LVL23:
 421              	.LBB68:
 422              	.LBI68:
1037:Drivers/STM32G4xx_HAL_Driver/Inc/stm32g4xx_ll_exti.h **** {
 423              		.loc 2 1037 22 view .LVU127
 424              	.LBB69:
1039:Drivers/STM32G4xx_HAL_Driver/Inc/stm32g4xx_ll_exti.h **** }
 425              		.loc 2 1039 3 view .LVU128
 426 0162 4C49     		ldr	r1, .L54+20
 427 0164 CA68     		ldr	r2, [r1, #12]
 428 0166 22EA0302 		bic	r2, r2, r3
 429 016a CA60     		str	r2, [r1, #12]
1040:Drivers/STM32G4xx_HAL_Driver/Inc/stm32g4xx_ll_exti.h **** 
 430              		.loc 2 1040 1 is_stmt 0 view .LVU129
 431 016c E8E7     		b	.L19
 432              	.LVL24:
 433              	.L20:
1040:Drivers/STM32G4xx_HAL_Driver/Inc/stm32g4xx_ll_exti.h **** 
 434              		.loc 2 1040 1 view .LVU130
 435              	.LBE69:
 436              	.LBE68:
 380:Drivers/STM32G4xx_HAL_Driver/Src/stm32g4xx_hal_comp.c ****         }
 437              		.loc 1 380 11 is_stmt 1 view .LVU131
 438              	.LBB70:
 439              	.LBI70:
1061:Drivers/STM32G4xx_HAL_Driver/Inc/stm32g4xx_ll_exti.h **** {
 440              		.loc 2 1061 22 view .LVU132
 441              	.LBB71:
1063:Drivers/STM32G4xx_HAL_Driver/Inc/stm32g4xx_ll_exti.h **** }
 442              		.loc 2 1063 3 view .LVU133
 443 016e 4949     		ldr	r1, .L54+20
 444 0170 CA6A     		ldr	r2, [r1, #44]
 445 0172 22EA0302 		bic	r2, r2, r3
 446 0176 CA62     		str	r2, [r1, #44]
1064:Drivers/STM32G4xx_HAL_Driver/Inc/stm32g4xx_ll_exti.h **** 
 447              		.loc 2 1064 1 is_stmt 0 view .LVU134
 448 0178 E2E7     		b	.L19
 449              	.LVL25:
 450              	.L22:
1064:Drivers/STM32G4xx_HAL_Driver/Inc/stm32g4xx_ll_exti.h **** 
 451              		.loc 2 1064 1 view .LVU135
 452              	.LBE71:
 453              	.LBE70:
 395:Drivers/STM32G4xx_HAL_Driver/Src/stm32g4xx_hal_comp.c ****       }
 454              		.loc 1 395 9 is_stmt 1 view .LVU136
 455              	.LBB72:
 456              	.LBI72:
1363:Drivers/STM32G4xx_HAL_Driver/Inc/stm32g4xx_ll_exti.h **** 
ARM GAS  C:\Users\T1\AppData\Local\Temp\cciVZ2by.s 			page 45


1364:Drivers/STM32G4xx_HAL_Driver/Inc/stm32g4xx_ll_exti.h **** /**
1365:Drivers/STM32G4xx_HAL_Driver/Inc/stm32g4xx_ll_exti.h ****   * @brief  Clear ExtLine Flags for  Lines in range 32 to 63
1366:Drivers/STM32G4xx_HAL_Driver/Inc/stm32g4xx_ll_exti.h ****   * @note This bit is set when the selected edge event arrives on the interrupt
1367:Drivers/STM32G4xx_HAL_Driver/Inc/stm32g4xx_ll_exti.h ****   *       line. This bit is cleared by writing a 1 to the bit.
1368:Drivers/STM32G4xx_HAL_Driver/Inc/stm32g4xx_ll_exti.h ****   * @rmtoll PR2          PIFx           LL_EXTI_ClearFlag_32_63
1369:Drivers/STM32G4xx_HAL_Driver/Inc/stm32g4xx_ll_exti.h ****   * @param  ExtiLine This parameter can be a combination of the following values:
1370:Drivers/STM32G4xx_HAL_Driver/Inc/stm32g4xx_ll_exti.h ****   *         @arg @ref LL_EXTI_LINE_32 (*)
1371:Drivers/STM32G4xx_HAL_Driver/Inc/stm32g4xx_ll_exti.h ****   *         @arg @ref LL_EXTI_LINE_33 (*)
1372:Drivers/STM32G4xx_HAL_Driver/Inc/stm32g4xx_ll_exti.h ****   *         @arg @ref LL_EXTI_LINE_38
1373:Drivers/STM32G4xx_HAL_Driver/Inc/stm32g4xx_ll_exti.h ****   *         @arg @ref LL_EXTI_LINE_39
1374:Drivers/STM32G4xx_HAL_Driver/Inc/stm32g4xx_ll_exti.h ****   *         @arg @ref LL_EXTI_LINE_40
1375:Drivers/STM32G4xx_HAL_Driver/Inc/stm32g4xx_ll_exti.h ****   *         @arg @ref LL_EXTI_LINE_41
1376:Drivers/STM32G4xx_HAL_Driver/Inc/stm32g4xx_ll_exti.h ****   * @note   (*): Available in some devices
1377:Drivers/STM32G4xx_HAL_Driver/Inc/stm32g4xx_ll_exti.h ****   * @retval None
1378:Drivers/STM32G4xx_HAL_Driver/Inc/stm32g4xx_ll_exti.h ****   */
1379:Drivers/STM32G4xx_HAL_Driver/Inc/stm32g4xx_ll_exti.h **** __STATIC_INLINE void LL_EXTI_ClearFlag_32_63(uint32_t ExtiLine)
 457              		.loc 2 1379 22 view .LVU137
 458              	.LBB73:
1380:Drivers/STM32G4xx_HAL_Driver/Inc/stm32g4xx_ll_exti.h **** {
1381:Drivers/STM32G4xx_HAL_Driver/Inc/stm32g4xx_ll_exti.h ****   WRITE_REG(EXTI->PR2, ExtiLine);
 459              		.loc 2 1381 3 view .LVU138
 460 017a 464A     		ldr	r2, .L54+20
 461 017c 5363     		str	r3, [r2, #52]
 462              	.LVL26:
 463              	.L24:
 464              		.loc 2 1381 3 is_stmt 0 view .LVU139
 465              	.LBE73:
 466              	.LBE72:
 406:Drivers/STM32G4xx_HAL_Driver/Src/stm32g4xx_hal_comp.c ****       {
 467              		.loc 1 406 7 is_stmt 1 view .LVU140
 406:Drivers/STM32G4xx_HAL_Driver/Src/stm32g4xx_hal_comp.c ****       {
 468              		.loc 1 406 22 is_stmt 0 view .LVU141
 469 017e A269     		ldr	r2, [r4, #24]
 406:Drivers/STM32G4xx_HAL_Driver/Src/stm32g4xx_hal_comp.c ****       {
 470              		.loc 1 406 9 view .LVU142
 471 0180 12F0020F 		tst	r2, #2
 472 0184 1FD0     		beq	.L25
 409:Drivers/STM32G4xx_HAL_Driver/Src/stm32g4xx_hal_comp.c ****         {
 473              		.loc 1 409 9 is_stmt 1 view .LVU143
 409:Drivers/STM32G4xx_HAL_Driver/Src/stm32g4xx_hal_comp.c ****         {
 474              		.loc 1 409 18 is_stmt 0 view .LVU144
 475 0186 2268     		ldr	r2, [r4]
 409:Drivers/STM32G4xx_HAL_Driver/Src/stm32g4xx_hal_comp.c ****         {
 476              		.loc 1 409 11 view .LVU145
 477 0188 4149     		ldr	r1, .L54+16
 478 018a 8A42     		cmp	r2, r1
 479 018c 07D0     		beq	.L26
 409:Drivers/STM32G4xx_HAL_Driver/Src/stm32g4xx_hal_comp.c ****         {
 480              		.loc 1 409 39 discriminator 1 view .LVU146
 481 018e 0431     		adds	r1, r1, #4
 482 0190 8A42     		cmp	r2, r1
 483 0192 04D0     		beq	.L26
 415:Drivers/STM32G4xx_HAL_Driver/Src/stm32g4xx_hal_comp.c ****         }
 484              		.loc 1 415 11 is_stmt 1 view .LVU147
 485              	.LVL27:
 486              	.LBB74:
 487              	.LBI74:
ARM GAS  C:\Users\T1\AppData\Local\Temp\cciVZ2by.s 			page 46


 544:Drivers/STM32G4xx_HAL_Driver/Inc/stm32g4xx_ll_exti.h **** {
 488              		.loc 2 544 22 view .LVU148
 489              	.LBB75:
 546:Drivers/STM32G4xx_HAL_Driver/Inc/stm32g4xx_ll_exti.h **** 
 490              		.loc 2 546 3 view .LVU149
 491 0194 3F49     		ldr	r1, .L54+20
 492 0196 4A68     		ldr	r2, [r1, #4]
 493 0198 1A43     		orrs	r2, r2, r3
 494 019a 4A60     		str	r2, [r1, #4]
 548:Drivers/STM32G4xx_HAL_Driver/Inc/stm32g4xx_ll_exti.h **** 
 495              		.loc 2 548 1 is_stmt 0 view .LVU150
 496 019c 03E0     		b	.L28
 497              	.LVL28:
 498              	.L26:
 548:Drivers/STM32G4xx_HAL_Driver/Inc/stm32g4xx_ll_exti.h **** 
 499              		.loc 2 548 1 view .LVU151
 500              	.LBE75:
 501              	.LBE74:
 411:Drivers/STM32G4xx_HAL_Driver/Src/stm32g4xx_hal_comp.c ****         }
 502              		.loc 1 411 11 is_stmt 1 view .LVU152
 503              	.LBB76:
 504              	.LBI76:
 569:Drivers/STM32G4xx_HAL_Driver/Inc/stm32g4xx_ll_exti.h **** {
 505              		.loc 2 569 22 view .LVU153
 506              	.LBB77:
 571:Drivers/STM32G4xx_HAL_Driver/Inc/stm32g4xx_ll_exti.h **** }
 507              		.loc 2 571 3 view .LVU154
 508 019e 3D49     		ldr	r1, .L54+20
 509 01a0 4A6A     		ldr	r2, [r1, #36]
 510 01a2 1A43     		orrs	r2, r2, r3
 511 01a4 4A62     		str	r2, [r1, #36]
 512              	.LVL29:
 513              	.L28:
 571:Drivers/STM32G4xx_HAL_Driver/Inc/stm32g4xx_ll_exti.h **** }
 514              		.loc 2 571 3 is_stmt 0 view .LVU155
 515              	.LBE77:
 516              	.LBE76:
 438:Drivers/STM32G4xx_HAL_Driver/Src/stm32g4xx_hal_comp.c ****       {
 517              		.loc 1 438 7 is_stmt 1 view .LVU156
 438:Drivers/STM32G4xx_HAL_Driver/Src/stm32g4xx_hal_comp.c ****       {
 518              		.loc 1 438 22 is_stmt 0 view .LVU157
 519 01a6 A269     		ldr	r2, [r4, #24]
 438:Drivers/STM32G4xx_HAL_Driver/Src/stm32g4xx_hal_comp.c ****       {
 520              		.loc 1 438 9 view .LVU158
 521 01a8 12F0010F 		tst	r2, #1
 522 01ac 23D0     		beq	.L31
 441:Drivers/STM32G4xx_HAL_Driver/Src/stm32g4xx_hal_comp.c ****         {
 523              		.loc 1 441 9 is_stmt 1 view .LVU159
 441:Drivers/STM32G4xx_HAL_Driver/Src/stm32g4xx_hal_comp.c ****         {
 524              		.loc 1 441 18 is_stmt 0 view .LVU160
 525 01ae 2268     		ldr	r2, [r4]
 441:Drivers/STM32G4xx_HAL_Driver/Src/stm32g4xx_hal_comp.c ****         {
 526              		.loc 1 441 11 view .LVU161
 527 01b0 3749     		ldr	r1, .L54+16
 528 01b2 8A42     		cmp	r2, r1
 529 01b4 1AD0     		beq	.L32
 441:Drivers/STM32G4xx_HAL_Driver/Src/stm32g4xx_hal_comp.c ****         {
ARM GAS  C:\Users\T1\AppData\Local\Temp\cciVZ2by.s 			page 47


 530              		.loc 1 441 39 discriminator 1 view .LVU162
 531 01b6 0431     		adds	r1, r1, #4
 532 01b8 8A42     		cmp	r2, r1
 533 01ba 17D0     		beq	.L32
 447:Drivers/STM32G4xx_HAL_Driver/Src/stm32g4xx_hal_comp.c ****         }
 534              		.loc 1 447 11 is_stmt 1 view .LVU163
 535              	.LVL30:
 536              	.LBB78:
 537              	.LBI78:
 312:Drivers/STM32G4xx_HAL_Driver/Inc/stm32g4xx_ll_exti.h **** {
 538              		.loc 2 312 22 view .LVU164
 539              	.LBB79:
 314:Drivers/STM32G4xx_HAL_Driver/Inc/stm32g4xx_ll_exti.h **** }
 540              		.loc 2 314 3 view .LVU165
 541 01bc 3549     		ldr	r1, .L54+20
 542 01be 0A68     		ldr	r2, [r1]
 543 01c0 1343     		orrs	r3, r3, r2
 544              	.LVL31:
 314:Drivers/STM32G4xx_HAL_Driver/Inc/stm32g4xx_ll_exti.h **** }
 545              		.loc 2 314 3 is_stmt 0 view .LVU166
 546 01c2 0B60     		str	r3, [r1]
 315:Drivers/STM32G4xx_HAL_Driver/Inc/stm32g4xx_ll_exti.h **** /**
 547              		.loc 2 315 1 view .LVU167
 548 01c4 4DE0     		b	.L34
 549              	.LVL32:
 550              	.L25:
 315:Drivers/STM32G4xx_HAL_Driver/Inc/stm32g4xx_ll_exti.h **** /**
 551              		.loc 2 315 1 view .LVU168
 552              	.LBE79:
 553              	.LBE78:
 424:Drivers/STM32G4xx_HAL_Driver/Src/stm32g4xx_hal_comp.c ****         {
 554              		.loc 1 424 9 is_stmt 1 view .LVU169
 424:Drivers/STM32G4xx_HAL_Driver/Src/stm32g4xx_hal_comp.c ****         {
 555              		.loc 1 424 18 is_stmt 0 view .LVU170
 556 01c6 2268     		ldr	r2, [r4]
 424:Drivers/STM32G4xx_HAL_Driver/Src/stm32g4xx_hal_comp.c ****         {
 557              		.loc 1 424 11 view .LVU171
 558 01c8 3149     		ldr	r1, .L54+16
 559 01ca 8A42     		cmp	r2, r1
 560 01cc 08D0     		beq	.L29
 424:Drivers/STM32G4xx_HAL_Driver/Src/stm32g4xx_hal_comp.c ****         {
 561              		.loc 1 424 39 discriminator 1 view .LVU172
 562 01ce 0431     		adds	r1, r1, #4
 563 01d0 8A42     		cmp	r2, r1
 564 01d2 05D0     		beq	.L29
 430:Drivers/STM32G4xx_HAL_Driver/Src/stm32g4xx_hal_comp.c ****         }
 565              		.loc 1 430 11 is_stmt 1 view .LVU173
 566              	.LVL33:
 567              	.LBB80:
 568              	.LBI80:
 615:Drivers/STM32G4xx_HAL_Driver/Inc/stm32g4xx_ll_exti.h **** {
 569              		.loc 2 615 22 view .LVU174
 570              	.LBB81:
 617:Drivers/STM32G4xx_HAL_Driver/Inc/stm32g4xx_ll_exti.h **** }
 571              		.loc 2 617 3 view .LVU175
 572 01d4 2F49     		ldr	r1, .L54+20
 573 01d6 4A68     		ldr	r2, [r1, #4]
ARM GAS  C:\Users\T1\AppData\Local\Temp\cciVZ2by.s 			page 48


 574 01d8 22EA0302 		bic	r2, r2, r3
 575 01dc 4A60     		str	r2, [r1, #4]
 618:Drivers/STM32G4xx_HAL_Driver/Inc/stm32g4xx_ll_exti.h **** 
 576              		.loc 2 618 1 is_stmt 0 view .LVU176
 577 01de E2E7     		b	.L28
 578              	.LVL34:
 579              	.L29:
 618:Drivers/STM32G4xx_HAL_Driver/Inc/stm32g4xx_ll_exti.h **** 
 580              		.loc 2 618 1 view .LVU177
 581              	.LBE81:
 582              	.LBE80:
 426:Drivers/STM32G4xx_HAL_Driver/Src/stm32g4xx_hal_comp.c ****         }
 583              		.loc 1 426 11 is_stmt 1 view .LVU178
 584              	.LBB82:
 585              	.LBI82:
 639:Drivers/STM32G4xx_HAL_Driver/Inc/stm32g4xx_ll_exti.h **** {
 586              		.loc 2 639 22 view .LVU179
 587              	.LBB83:
 641:Drivers/STM32G4xx_HAL_Driver/Inc/stm32g4xx_ll_exti.h **** }
 588              		.loc 2 641 3 view .LVU180
 589 01e0 2C49     		ldr	r1, .L54+20
 590 01e2 4A6A     		ldr	r2, [r1, #36]
 591 01e4 22EA0302 		bic	r2, r2, r3
 592 01e8 4A62     		str	r2, [r1, #36]
 642:Drivers/STM32G4xx_HAL_Driver/Inc/stm32g4xx_ll_exti.h **** 
 593              		.loc 2 642 1 is_stmt 0 view .LVU181
 594 01ea DCE7     		b	.L28
 595              	.LVL35:
 596              	.L32:
 642:Drivers/STM32G4xx_HAL_Driver/Inc/stm32g4xx_ll_exti.h **** 
 597              		.loc 2 642 1 view .LVU182
 598              	.LBE83:
 599              	.LBE82:
 443:Drivers/STM32G4xx_HAL_Driver/Src/stm32g4xx_hal_comp.c ****         }
 600              		.loc 1 443 11 is_stmt 1 view .LVU183
 601              	.LBB84:
 602              	.LBI84:
 338:Drivers/STM32G4xx_HAL_Driver/Inc/stm32g4xx_ll_exti.h **** {
 603              		.loc 2 338 22 view .LVU184
 604              	.LBB85:
 340:Drivers/STM32G4xx_HAL_Driver/Inc/stm32g4xx_ll_exti.h **** }
 605              		.loc 2 340 3 view .LVU185
 606 01ec 2949     		ldr	r1, .L54+20
 607 01ee 0A6A     		ldr	r2, [r1, #32]
 608 01f0 1343     		orrs	r3, r3, r2
 609              	.LVL36:
 340:Drivers/STM32G4xx_HAL_Driver/Inc/stm32g4xx_ll_exti.h **** }
 610              		.loc 2 340 3 is_stmt 0 view .LVU186
 611 01f2 0B62     		str	r3, [r1, #32]
 341:Drivers/STM32G4xx_HAL_Driver/Inc/stm32g4xx_ll_exti.h **** 
 612              		.loc 2 341 1 view .LVU187
 613 01f4 35E0     		b	.L34
 614              	.LVL37:
 615              	.L31:
 341:Drivers/STM32G4xx_HAL_Driver/Inc/stm32g4xx_ll_exti.h **** 
 616              		.loc 2 341 1 view .LVU188
 617              	.LBE85:
ARM GAS  C:\Users\T1\AppData\Local\Temp\cciVZ2by.s 			page 49


 618              	.LBE84:
 456:Drivers/STM32G4xx_HAL_Driver/Src/stm32g4xx_hal_comp.c ****         {
 619              		.loc 1 456 9 is_stmt 1 view .LVU189
 456:Drivers/STM32G4xx_HAL_Driver/Src/stm32g4xx_hal_comp.c ****         {
 620              		.loc 1 456 18 is_stmt 0 view .LVU190
 621 01f6 2268     		ldr	r2, [r4]
 456:Drivers/STM32G4xx_HAL_Driver/Src/stm32g4xx_hal_comp.c ****         {
 622              		.loc 1 456 11 view .LVU191
 623 01f8 2549     		ldr	r1, .L54+16
 624 01fa 8A42     		cmp	r2, r1
 625 01fc 08D0     		beq	.L35
 456:Drivers/STM32G4xx_HAL_Driver/Src/stm32g4xx_hal_comp.c ****         {
 626              		.loc 1 456 39 discriminator 1 view .LVU192
 627 01fe 0431     		adds	r1, r1, #4
 628 0200 8A42     		cmp	r2, r1
 629 0202 05D0     		beq	.L35
 462:Drivers/STM32G4xx_HAL_Driver/Src/stm32g4xx_hal_comp.c ****         }
 630              		.loc 1 462 11 is_stmt 1 view .LVU193
 631              	.LVL38:
 632              	.LBB86:
 633              	.LBI86:
 387:Drivers/STM32G4xx_HAL_Driver/Inc/stm32g4xx_ll_exti.h **** {
 634              		.loc 2 387 22 view .LVU194
 635              	.LBB87:
 389:Drivers/STM32G4xx_HAL_Driver/Inc/stm32g4xx_ll_exti.h **** }
 636              		.loc 2 389 3 view .LVU195
 637 0204 2349     		ldr	r1, .L54+20
 638 0206 0A68     		ldr	r2, [r1]
 639 0208 22EA0303 		bic	r3, r2, r3
 640              	.LVL39:
 389:Drivers/STM32G4xx_HAL_Driver/Inc/stm32g4xx_ll_exti.h **** }
 641              		.loc 2 389 3 is_stmt 0 view .LVU196
 642 020c 0B60     		str	r3, [r1]
 390:Drivers/STM32G4xx_HAL_Driver/Inc/stm32g4xx_ll_exti.h **** 
 643              		.loc 2 390 1 view .LVU197
 644 020e 28E0     		b	.L34
 645              	.LVL40:
 646              	.L35:
 390:Drivers/STM32G4xx_HAL_Driver/Inc/stm32g4xx_ll_exti.h **** 
 647              		.loc 2 390 1 view .LVU198
 648              	.LBE87:
 649              	.LBE86:
 458:Drivers/STM32G4xx_HAL_Driver/Src/stm32g4xx_hal_comp.c ****         }
 650              		.loc 1 458 11 is_stmt 1 view .LVU199
 651              	.LBB88:
 652              	.LBI88:
 414:Drivers/STM32G4xx_HAL_Driver/Inc/stm32g4xx_ll_exti.h **** {
 653              		.loc 2 414 22 view .LVU200
 654              	.LBB89:
 416:Drivers/STM32G4xx_HAL_Driver/Inc/stm32g4xx_ll_exti.h **** }
 655              		.loc 2 416 3 view .LVU201
 656 0210 2049     		ldr	r1, .L54+20
 657 0212 0A6A     		ldr	r2, [r1, #32]
 658 0214 22EA0303 		bic	r3, r2, r3
 659              	.LVL41:
 416:Drivers/STM32G4xx_HAL_Driver/Inc/stm32g4xx_ll_exti.h **** }
 660              		.loc 2 416 3 is_stmt 0 view .LVU202
ARM GAS  C:\Users\T1\AppData\Local\Temp\cciVZ2by.s 			page 50


 661 0218 0B62     		str	r3, [r1, #32]
 417:Drivers/STM32G4xx_HAL_Driver/Inc/stm32g4xx_ll_exti.h **** 
 662              		.loc 2 417 1 view .LVU203
 663 021a 22E0     		b	.L34
 664              	.LVL42:
 665              	.L9:
 417:Drivers/STM32G4xx_HAL_Driver/Inc/stm32g4xx_ll_exti.h **** 
 666              		.loc 2 417 1 view .LVU204
 667              	.LBE89:
 668              	.LBE88:
 473:Drivers/STM32G4xx_HAL_Driver/Src/stm32g4xx_hal_comp.c ****       {
 669              		.loc 1 473 7 is_stmt 1 view .LVU205
 473:Drivers/STM32G4xx_HAL_Driver/Src/stm32g4xx_hal_comp.c ****       {
 670              		.loc 1 473 9 is_stmt 0 view .LVU206
 671 021c 1C49     		ldr	r1, .L54+16
 672 021e 8A42     		cmp	r2, r1
 673 0220 08D0     		beq	.L37
 473:Drivers/STM32G4xx_HAL_Driver/Src/stm32g4xx_hal_comp.c ****       {
 674              		.loc 1 473 37 discriminator 1 view .LVU207
 675 0222 0431     		adds	r1, r1, #4
 676 0224 8A42     		cmp	r2, r1
 677 0226 05D0     		beq	.L37
 479:Drivers/STM32G4xx_HAL_Driver/Src/stm32g4xx_hal_comp.c ****       }
 678              		.loc 1 479 9 is_stmt 1 view .LVU208
 679              	.LVL43:
 680              	.LBB90:
 681              	.LBI90:
 615:Drivers/STM32G4xx_HAL_Driver/Inc/stm32g4xx_ll_exti.h **** {
 682              		.loc 2 615 22 view .LVU209
 683              	.LBB91:
 617:Drivers/STM32G4xx_HAL_Driver/Inc/stm32g4xx_ll_exti.h **** }
 684              		.loc 2 617 3 view .LVU210
 685 0228 1A49     		ldr	r1, .L54+20
 686 022a 4A68     		ldr	r2, [r1, #4]
 687 022c 22EA0302 		bic	r2, r2, r3
 688 0230 4A60     		str	r2, [r1, #4]
 618:Drivers/STM32G4xx_HAL_Driver/Inc/stm32g4xx_ll_exti.h **** 
 689              		.loc 2 618 1 is_stmt 0 view .LVU211
 690 0232 04E0     		b	.L39
 691              	.LVL44:
 692              	.L37:
 618:Drivers/STM32G4xx_HAL_Driver/Inc/stm32g4xx_ll_exti.h **** 
 693              		.loc 2 618 1 view .LVU212
 694              	.LBE91:
 695              	.LBE90:
 475:Drivers/STM32G4xx_HAL_Driver/Src/stm32g4xx_hal_comp.c ****       }
 696              		.loc 1 475 9 is_stmt 1 view .LVU213
 697              	.LBB92:
 698              	.LBI92:
 639:Drivers/STM32G4xx_HAL_Driver/Inc/stm32g4xx_ll_exti.h **** {
 699              		.loc 2 639 22 view .LVU214
 700              	.LBB93:
 641:Drivers/STM32G4xx_HAL_Driver/Inc/stm32g4xx_ll_exti.h **** }
 701              		.loc 2 641 3 view .LVU215
 702 0234 1749     		ldr	r1, .L54+20
 703 0236 4A6A     		ldr	r2, [r1, #36]
 704 0238 22EA0302 		bic	r2, r2, r3
ARM GAS  C:\Users\T1\AppData\Local\Temp\cciVZ2by.s 			page 51


 705 023c 4A62     		str	r2, [r1, #36]
 706              	.LVL45:
 707              	.L39:
 641:Drivers/STM32G4xx_HAL_Driver/Inc/stm32g4xx_ll_exti.h **** }
 708              		.loc 2 641 3 is_stmt 0 view .LVU216
 709              	.LBE93:
 710              	.LBE92:
 487:Drivers/STM32G4xx_HAL_Driver/Src/stm32g4xx_hal_comp.c ****       {
 711              		.loc 1 487 7 is_stmt 1 view .LVU217
 487:Drivers/STM32G4xx_HAL_Driver/Src/stm32g4xx_hal_comp.c ****       {
 712              		.loc 1 487 16 is_stmt 0 view .LVU218
 713 023e 2268     		ldr	r2, [r4]
 487:Drivers/STM32G4xx_HAL_Driver/Src/stm32g4xx_hal_comp.c ****       {
 714              		.loc 1 487 9 view .LVU219
 715 0240 1349     		ldr	r1, .L54+16
 716 0242 8A42     		cmp	r2, r1
 717 0244 08D0     		beq	.L40
 487:Drivers/STM32G4xx_HAL_Driver/Src/stm32g4xx_hal_comp.c ****       {
 718              		.loc 1 487 37 discriminator 1 view .LVU220
 719 0246 0431     		adds	r1, r1, #4
 720 0248 8A42     		cmp	r2, r1
 721 024a 05D0     		beq	.L40
 493:Drivers/STM32G4xx_HAL_Driver/Src/stm32g4xx_hal_comp.c ****       }
 722              		.loc 1 493 9 is_stmt 1 view .LVU221
 723              	.LVL46:
 724              	.LBB94:
 725              	.LBI94:
 387:Drivers/STM32G4xx_HAL_Driver/Inc/stm32g4xx_ll_exti.h **** {
 726              		.loc 2 387 22 view .LVU222
 727              	.LBB95:
 389:Drivers/STM32G4xx_HAL_Driver/Inc/stm32g4xx_ll_exti.h **** }
 728              		.loc 2 389 3 view .LVU223
 729 024c 1149     		ldr	r1, .L54+20
 730 024e 0A68     		ldr	r2, [r1]
 731 0250 22EA0303 		bic	r3, r2, r3
 732              	.LVL47:
 389:Drivers/STM32G4xx_HAL_Driver/Inc/stm32g4xx_ll_exti.h **** }
 733              		.loc 2 389 3 is_stmt 0 view .LVU224
 734 0254 0B60     		str	r3, [r1]
 390:Drivers/STM32G4xx_HAL_Driver/Inc/stm32g4xx_ll_exti.h **** 
 735              		.loc 2 390 1 view .LVU225
 736 0256 04E0     		b	.L34
 737              	.LVL48:
 738              	.L40:
 390:Drivers/STM32G4xx_HAL_Driver/Inc/stm32g4xx_ll_exti.h **** 
 739              		.loc 2 390 1 view .LVU226
 740              	.LBE95:
 741              	.LBE94:
 489:Drivers/STM32G4xx_HAL_Driver/Src/stm32g4xx_hal_comp.c ****       }
 742              		.loc 1 489 9 is_stmt 1 view .LVU227
 743              	.LBB96:
 744              	.LBI96:
 414:Drivers/STM32G4xx_HAL_Driver/Inc/stm32g4xx_ll_exti.h **** {
 745              		.loc 2 414 22 view .LVU228
 746              	.LBB97:
 416:Drivers/STM32G4xx_HAL_Driver/Inc/stm32g4xx_ll_exti.h **** }
 747              		.loc 2 416 3 view .LVU229
ARM GAS  C:\Users\T1\AppData\Local\Temp\cciVZ2by.s 			page 52


 748 0258 0E49     		ldr	r1, .L54+20
 749 025a 0A6A     		ldr	r2, [r1, #32]
 750 025c 22EA0303 		bic	r3, r2, r3
 751              	.LVL49:
 416:Drivers/STM32G4xx_HAL_Driver/Inc/stm32g4xx_ll_exti.h **** }
 752              		.loc 2 416 3 is_stmt 0 view .LVU230
 753 0260 0B62     		str	r3, [r1, #32]
 754              	.LVL50:
 755              	.L34:
 416:Drivers/STM32G4xx_HAL_Driver/Inc/stm32g4xx_ll_exti.h **** }
 756              		.loc 2 416 3 view .LVU231
 757              	.LBE97:
 758              	.LBE96:
 503:Drivers/STM32G4xx_HAL_Driver/Src/stm32g4xx_hal_comp.c ****     {
 759              		.loc 1 503 5 is_stmt 1 view .LVU232
 503:Drivers/STM32G4xx_HAL_Driver/Src/stm32g4xx_hal_comp.c ****     {
 760              		.loc 1 503 14 is_stmt 0 view .LVU233
 761 0262 637F     		ldrb	r3, [r4, #29]	@ zero_extendqisi2
 503:Drivers/STM32G4xx_HAL_Driver/Src/stm32g4xx_hal_comp.c ****     {
 762              		.loc 1 503 8 view .LVU234
 763 0264 03F0FF00 		and	r0, r3, #255
 764              	.LVL51:
 503:Drivers/STM32G4xx_HAL_Driver/Src/stm32g4xx_hal_comp.c ****     {
 765              		.loc 1 503 8 view .LVU235
 766 0268 3BB9     		cbnz	r3, .L50
 505:Drivers/STM32G4xx_HAL_Driver/Src/stm32g4xx_hal_comp.c ****     }
 767              		.loc 1 505 7 is_stmt 1 view .LVU236
 505:Drivers/STM32G4xx_HAL_Driver/Src/stm32g4xx_hal_comp.c ****     }
 768              		.loc 1 505 20 is_stmt 0 view .LVU237
 769 026a 0123     		movs	r3, #1
 770 026c 6377     		strb	r3, [r4, #29]
 771 026e 00E0     		b	.L3
 772              	.LVL52:
 773              	.L42:
 236:Drivers/STM32G4xx_HAL_Driver/Src/stm32g4xx_hal_comp.c ****   }
 774              		.loc 1 236 12 view .LVU238
 775 0270 0120     		movs	r0, #1
 776              	.LVL53:
 777              	.L3:
 509:Drivers/STM32G4xx_HAL_Driver/Src/stm32g4xx_hal_comp.c **** }
 778              		.loc 1 509 3 is_stmt 1 view .LVU239
 510:Drivers/STM32G4xx_HAL_Driver/Src/stm32g4xx_hal_comp.c **** 
 779              		.loc 1 510 1 is_stmt 0 view .LVU240
 780 0272 03B0     		add	sp, sp, #12
 781              	.LCFI2:
 782              		.cfi_remember_state
 783              		.cfi_def_cfa_offset 12
 784              		@ sp needed
 785 0274 30BD     		pop	{r4, r5, pc}
 786              	.LVL54:
 787              	.L43:
 788              	.LCFI3:
 789              		.cfi_restore_state
 240:Drivers/STM32G4xx_HAL_Driver/Src/stm32g4xx_hal_comp.c ****   }
 790              		.loc 1 240 12 view .LVU241
 791 0276 0120     		movs	r0, #1
 792              	.LVL55:
ARM GAS  C:\Users\T1\AppData\Local\Temp\cciVZ2by.s 			page 53


 240:Drivers/STM32G4xx_HAL_Driver/Src/stm32g4xx_hal_comp.c ****   }
 793              		.loc 1 240 12 view .LVU242
 794 0278 FBE7     		b	.L3
 795              	.LVL56:
 796              	.L50:
 231:Drivers/STM32G4xx_HAL_Driver/Src/stm32g4xx_hal_comp.c **** 
 797              		.loc 1 231 21 view .LVU243
 798 027a 0020     		movs	r0, #0
 799 027c F9E7     		b	.L3
 800              	.L55:
 801 027e 00BF     		.align	2
 802              	.L54:
 803 0280 0F7E00FF 		.word	-16744945
 804 0284 00000000 		.word	SystemCoreClock
 805 0288 632D3E05 		.word	87960931
 806 028c 00020140 		.word	1073807872
 807 0290 14020140 		.word	1073807892
 808 0294 00040140 		.word	1073808384
 809              		.cfi_endproc
 810              	.LFE361:
 812              		.section	.text.HAL_COMP_MspDeInit,"ax",%progbits
 813              		.align	1
 814              		.weak	HAL_COMP_MspDeInit
 815              		.syntax unified
 816              		.thumb
 817              		.thumb_func
 819              	HAL_COMP_MspDeInit:
 820              	.LVL57:
 821              	.LFB364:
 577:Drivers/STM32G4xx_HAL_Driver/Src/stm32g4xx_hal_comp.c **** 
 578:Drivers/STM32G4xx_HAL_Driver/Src/stm32g4xx_hal_comp.c **** /**
 579:Drivers/STM32G4xx_HAL_Driver/Src/stm32g4xx_hal_comp.c ****   * @brief  DeInitialize the COMP MSP.
 580:Drivers/STM32G4xx_HAL_Driver/Src/stm32g4xx_hal_comp.c ****   * @param  hcomp  COMP handle
 581:Drivers/STM32G4xx_HAL_Driver/Src/stm32g4xx_hal_comp.c ****   * @retval None
 582:Drivers/STM32G4xx_HAL_Driver/Src/stm32g4xx_hal_comp.c ****   */
 583:Drivers/STM32G4xx_HAL_Driver/Src/stm32g4xx_hal_comp.c **** __weak void HAL_COMP_MspDeInit(COMP_HandleTypeDef *hcomp)
 584:Drivers/STM32G4xx_HAL_Driver/Src/stm32g4xx_hal_comp.c **** {
 822              		.loc 1 584 1 is_stmt 1 view -0
 823              		.cfi_startproc
 824              		@ args = 0, pretend = 0, frame = 0
 825              		@ frame_needed = 0, uses_anonymous_args = 0
 826              		@ link register save eliminated.
 585:Drivers/STM32G4xx_HAL_Driver/Src/stm32g4xx_hal_comp.c ****   /* Prevent unused argument(s) compilation warning */
 586:Drivers/STM32G4xx_HAL_Driver/Src/stm32g4xx_hal_comp.c ****   UNUSED(hcomp);
 827              		.loc 1 586 3 view .LVU245
 587:Drivers/STM32G4xx_HAL_Driver/Src/stm32g4xx_hal_comp.c **** 
